# SymbolsHelper-Confirmed: 5:5.85.0 amd64
libKF5CalendarCore.so.5abi2 libkf5calendarcore5abi2 #MINVER#
* Build-Depends-Package: libkf5calendarcore-dev
 ABI_5_2@ABI_5_2 5:5.67.0
 _ZN13KCalendarCore10Attachment11setMimeTypeERK7QString@ABI_5_2 5:5.67.0
 _ZN13KCalendarCore10Attachment13setShowInlineEb@ABI_5_2 5:5.67.0
 _ZN13KCalendarCore10Attachment14setDecodedDataERK10QByteArray@ABI_5_2 5:5.67.0
 _ZN13KCalendarCore10Attachment16staticMetaObjectE@ABI_5_2 5:5.67.0
 _ZN13KCalendarCore10Attachment6setUriERK7QString@ABI_5_2 5:5.67.0
 _ZN13KCalendarCore10Attachment7setDataERK10QByteArray@ABI_5_2 5:5.67.0
 _ZN13KCalendarCore10Attachment8setLabelERK7QString@ABI_5_2 5:5.67.0
 _ZN13KCalendarCore10Attachment8setLocalEb@ABI_5_2 5:5.67.0
 _ZN13KCalendarCore10AttachmentC1ERK10QByteArrayRK7QString@ABI_5_2 5:5.67.0
 _ZN13KCalendarCore10AttachmentC1ERK7QStringS3_@ABI_5_2 5:5.67.0
 _ZN13KCalendarCore10AttachmentC1ERKS0_@ABI_5_2 5:5.67.0
 _ZN13KCalendarCore10AttachmentC1Ev@ABI_5_2 5:5.67.0
 _ZN13KCalendarCore10AttachmentC2ERK10QByteArrayRK7QString@ABI_5_2 5:5.67.0
 _ZN13KCalendarCore10AttachmentC2ERK7QStringS3_@ABI_5_2 5:5.67.0
 _ZN13KCalendarCore10AttachmentC2ERKS0_@ABI_5_2 5:5.67.0
 _ZN13KCalendarCore10AttachmentC2Ev@ABI_5_2 5:5.67.0
 _ZN13KCalendarCore10AttachmentD1Ev@ABI_5_2 5:5.67.0
 _ZN13KCalendarCore10AttachmentD2Ev@ABI_5_2 5:5.67.0
 _ZN13KCalendarCore10AttachmentaSERKS0_@ABI_5_2 5:5.67.0
 _ZN13KCalendarCore10CalStorage11qt_metacallEN11QMetaObject4CallEiPPv@ABI_5_2 5:5.67.0
 _ZN13KCalendarCore10CalStorage11qt_metacastEPKc@ABI_5_2 5:5.67.0
 _ZN13KCalendarCore10CalStorage16staticMetaObjectE@ABI_5_2 5:5.67.0
 _ZN13KCalendarCore10CalStorageC1ERK14QSharedPointerINS_8CalendarEE@ABI_5_2 5:5.67.0
 _ZN13KCalendarCore10CalStorageC2ERK14QSharedPointerINS_8CalendarEE@ABI_5_2 5:5.67.0
 _ZN13KCalendarCore10CalStorageD0Ev@ABI_5_2 5:5.67.0
 _ZN13KCalendarCore10CalStorageD1Ev@ABI_5_2 5:5.67.0
 _ZN13KCalendarCore10CalStorageD2Ev@ABI_5_2 5:5.67.0
 _ZN13KCalendarCore10Conference10addFeatureERK7QString@ABI_5_2 5:5.77.0
 _ZN13KCalendarCore10Conference11setFeaturesERK11QStringList@ABI_5_2 5:5.77.0
 _ZN13KCalendarCore10Conference11setLanguageERK7QString@ABI_5_2 5:5.77.0
 _ZN13KCalendarCore10Conference13removeFeatureERK7QString@ABI_5_2 5:5.77.0
 _ZN13KCalendarCore10Conference16customPropertiesEv@ABI_5_2 5:5.77.0
 _ZN13KCalendarCore10Conference16staticMetaObjectE@ABI_5_2 5:5.77.0
 _ZN13KCalendarCore10Conference17setCustomPropertyERK10QByteArrayRK7QString@ABI_5_2 5:5.77.0
 _ZN13KCalendarCore10Conference6setUriERK4QUrl@ABI_5_2 5:5.77.0
 _ZN13KCalendarCore10Conference8setLabelERK7QString@ABI_5_2 5:5.77.0
 _ZN13KCalendarCore10ConferenceC1ERK4QUrlRK7QStringRK11QStringListS6_@ABI_5_2 5:5.77.0
 _ZN13KCalendarCore10ConferenceC1ERKS0_@ABI_5_2 5:5.77.0
 _ZN13KCalendarCore10ConferenceC1Ev@ABI_5_2 5:5.77.0
 _ZN13KCalendarCore10ConferenceC2ERK4QUrlRK7QStringRK11QStringListS6_@ABI_5_2 5:5.77.0
 _ZN13KCalendarCore10ConferenceC2ERKS0_@ABI_5_2 5:5.77.0
 _ZN13KCalendarCore10ConferenceC2Ev@ABI_5_2 5:5.77.0
 _ZN13KCalendarCore10ConferenceD1Ev@ABI_5_2 5:5.77.0
 _ZN13KCalendarCore10ConferenceD2Ev@ABI_5_2 5:5.77.0
 _ZN13KCalendarCore10ConferenceaSERKS0_@ABI_5_2 5:5.77.0
 _ZN13KCalendarCore10ICalFormat10fromStringEPNS_14RecurrenceRuleERK7QString@ABI_5_2 5:5.67.0
 _ZN13KCalendarCore10ICalFormat10fromStringERK14QSharedPointerINS_8CalendarEERK7QStringbS8_@ABI_5_2 5:5.67.0
 _ZN13KCalendarCore10ICalFormat10fromStringERK7QString@ABI_5_2 5:5.67.0
 _ZN13KCalendarCore10ICalFormat11setTimeZoneERK9QTimeZone@ABI_5_2 5:5.67.0
 _ZN13KCalendarCore10ICalFormat11toRawStringERK14QSharedPointerINS_9IncidenceEE@ABI_5_2 5:5.67.0
 _ZN13KCalendarCore10ICalFormat12toICalStringERK14QSharedPointerINS_9IncidenceEE@ABI_5_2 5:5.67.0
 _ZN13KCalendarCore10ICalFormat12virtual_hookEiPv@ABI_5_2 5:5.67.0
 _ZN13KCalendarCore10ICalFormat13fromRawStringERK14QSharedPointerINS_8CalendarEERK10QByteArraybRK7QString@ABI_5_2 5:5.67.0
 _ZN13KCalendarCore10ICalFormat13parseFreeBusyERK7QString@ABI_5_2 5:5.67.0
 _ZN13KCalendarCore10ICalFormat13readIncidenceERK10QByteArray@ABI_5_2 5:5.67.0
 _ZN13KCalendarCore10ICalFormat20parseScheduleMessageERK14QSharedPointerINS_8CalendarEERK7QString@ABI_5_2 5:5.67.0
 _ZN13KCalendarCore10ICalFormat21createScheduleMessageERK14QSharedPointerINS_13IncidenceBaseEENS_10iTIPMethodE@ABI_5_2 5:5.67.0
 _ZN13KCalendarCore10ICalFormat4loadERK14QSharedPointerINS_8CalendarEERK7QString@ABI_5_2 5:5.67.0
 _ZN13KCalendarCore10ICalFormat4saveERK14QSharedPointerINS_8CalendarEERK7QString@ABI_5_2 5:5.67.0
 _ZN13KCalendarCore10ICalFormat8toStringEPNS_14RecurrenceRuleE@ABI_5_2 5:5.67.0
 _ZN13KCalendarCore10ICalFormat8toStringERK14QSharedPointerINS_8CalendarEERK7QStringb@ABI_5_2 5:5.67.0
 _ZN13KCalendarCore10ICalFormat8toStringERK14QSharedPointerINS_9IncidenceEE@ABI_5_2 5:5.67.0
 _ZN13KCalendarCore10ICalFormatC1Ev@ABI_5_2 5:5.67.0
 _ZN13KCalendarCore10ICalFormatC2Ev@ABI_5_2 5:5.67.0
 _ZN13KCalendarCore10ICalFormatD0Ev@ABI_5_2 5:5.67.0
 _ZN13KCalendarCore10ICalFormatD1Ev@ABI_5_2 5:5.67.0
 _ZN13KCalendarCore10ICalFormatD2Ev@ABI_5_2 5:5.67.0
 _ZN13KCalendarCore10Incidences12dateLessThanERK14QSharedPointerINS_9IncidenceEES5_@ABI_5_2 5:5.67.0
 _ZN13KCalendarCore10Incidences12dateMoreThanERK14QSharedPointerINS_9IncidenceEES5_@ABI_5_2 5:5.67.0
 _ZN13KCalendarCore10Incidences15createdLessThanERK14QSharedPointerINS_9IncidenceEES5_@ABI_5_2 5:5.67.0
 _ZN13KCalendarCore10Incidences15createdMoreThanERK14QSharedPointerINS_9IncidenceEES5_@ABI_5_2 5:5.67.0
 _ZN13KCalendarCore10Incidences15summaryLessThanERK14QSharedPointerINS_9IncidenceEES5_@ABI_5_2 5:5.67.0
 _ZN13KCalendarCore10Incidences15summaryMoreThanERK14QSharedPointerINS_9IncidenceEES5_@ABI_5_2 5:5.67.0
 _ZN13KCalendarCore10Incidences18categoriesLessThanERK14QSharedPointerINS_9IncidenceEES5_@ABI_5_2 5:5.83.0
 _ZN13KCalendarCore10Incidences18categoriesMoreThanERK14QSharedPointerINS_9IncidenceEES5_@ABI_5_2 5:5.83.0
 _ZN13KCalendarCore10Recurrence10setEndDateERK5QDate@ABI_5_2 5:5.67.0
 _ZN13KCalendarCore10Recurrence10setExDatesERK5QListI5QDateE@ABI_5_2 5:5.67.0
 _ZN13KCalendarCore10Recurrence10setMonthlyEi@ABI_5_2 5:5.67.0
 _ZN13KCalendarCore10Recurrence10shiftTimesERK9QTimeZoneS3_@ABI_5_2 5:5.67.0
 _ZN13KCalendarCore10Recurrence11addObserverEPNS0_18RecurrenceObserverE@ABI_5_2 5:5.67.0
 _ZN13KCalendarCore10Recurrence11deleteRRuleEPNS_14RecurrenceRuleE@ABI_5_2 5:5.67.0
 _ZN13KCalendarCore10Recurrence11removeRRuleEPNS_14RecurrenceRuleE@ABI_5_2 5:5.67.0
 _ZN13KCalendarCore10Recurrence11setDurationEi@ABI_5_2 5:5.67.0
 _ZN13KCalendarCore10Recurrence11setMinutelyEi@ABI_5_2 5:5.67.0
 _ZN13KCalendarCore10Recurrence11unsetRecursEv@ABI_5_2 5:5.67.0
 _ZN13KCalendarCore10Recurrence12addRDateTimeERK9QDateTime@ABI_5_2 5:5.67.0
 _ZN13KCalendarCore10Recurrence12addYearlyDayEi@ABI_5_2 5:5.67.0
 _ZN13KCalendarCore10Recurrence12addYearlyPosEsRK9QBitArray@ABI_5_2 5:5.67.0
 _ZN13KCalendarCore10Recurrence12deleteExRuleEPNS_14RecurrenceRuleE@ABI_5_2 5:5.67.0
 _ZN13KCalendarCore10Recurrence12removeExRuleEPNS_14RecurrenceRuleE@ABI_5_2 5:5.67.0
 _ZN13KCalendarCore10Recurrence12setFrequencyEi@ABI_5_2 5:5.67.0
 _ZN13KCalendarCore10Recurrence12setYearlyDayERK5QListIiE@ABI_5_2 5:5.67.0
 _ZN13KCalendarCore10Recurrence12setYearlyPosERK5QListINS_14RecurrenceRule7WDayPosEE@ABI_5_2 5:5.67.0
 _ZN13KCalendarCore10Recurrence13addExDateTimeERK9QDateTime@ABI_5_2 5:5.67.0
 _ZN13KCalendarCore10Recurrence13addMonthlyPosEsRK9QBitArray@ABI_5_2 5:5.67.0
 _ZN13KCalendarCore10Recurrence13addMonthlyPosEst@ABI_5_2 5:5.67.0
 _ZN13KCalendarCore10Recurrence13addWeeklyDaysERK9QBitArray@ABI_5_2 5:5.67.0
 _ZN13KCalendarCore10Recurrence13addYearlyDateEi@ABI_5_2 5:5.67.0
 _ZN13KCalendarCore10Recurrence13setMonthlyPosERK5QListINS_14RecurrenceRule7WDayPosEE@ABI_5_2 5:5.67.0
 _ZN13KCalendarCore10Recurrence13setRDateTimesERK5QListI9QDateTimeE@ABI_5_2 5:5.67.0
 _ZN13KCalendarCore10Recurrence13setYearlyDateERK5QListIiE@ABI_5_2 5:5.67.0
 _ZN13KCalendarCore10Recurrence14addMonthlyDateEs@ABI_5_2 5:5.67.0
 _ZN13KCalendarCore10Recurrence14addYearlyMonthEs@ABI_5_2 5:5.67.0
 _ZN13KCalendarCore10Recurrence14recurrenceTypeEPKNS_14RecurrenceRuleE@ABI_5_2 5:5.67.0
 _ZN13KCalendarCore10Recurrence14removeObserverEPNS0_18RecurrenceObserverE@ABI_5_2 5:5.67.0
 _ZN13KCalendarCore10Recurrence14setEndDateTimeERK9QDateTime@ABI_5_2 5:5.67.0
 _ZN13KCalendarCore10Recurrence14setExDateTimesERK5QListI9QDateTimeE@ABI_5_2 5:5.67.0
 _ZN13KCalendarCore10Recurrence14setMonthlyDateERK5QListIiE@ABI_5_2 5:5.67.0
 _ZN13KCalendarCore10Recurrence14setYearlyMonthERK5QListIiE@ABI_5_2 5:5.67.0
 _ZN13KCalendarCore10Recurrence16setRecurReadOnlyEb@ABI_5_2 5:5.67.0
 _ZN13KCalendarCore10Recurrence16setStartDateTimeERK9QDateTimeb@ABI_5_2 5:5.67.0
 _ZN13KCalendarCore10Recurrence17recurrenceChangedEPNS_14RecurrenceRuleE@ABI_5_2 5:5.67.0
 _ZN13KCalendarCore10Recurrence18RecurrenceObserverD0Ev@ABI_5_2 5:5.67.0
 _ZN13KCalendarCore10Recurrence18RecurrenceObserverD1Ev@ABI_5_2 5:5.67.0
 _ZN13KCalendarCore10Recurrence18RecurrenceObserverD2Ev@ABI_5_2 5:5.67.0
 _ZN13KCalendarCore10Recurrence18addRDateTimePeriodERKNS_6PeriodE@ABI_5_2 5:5.90.0
 _ZN13KCalendarCore10Recurrence20setNewRecurrenceTypeENS_14RecurrenceRule10PeriodTypeEi@ABI_5_2 5:5.67.0
 _ZN13KCalendarCore10Recurrence5clearEv@ABI_5_2 5:5.67.0
 _ZN13KCalendarCore10Recurrence7updatedEv@ABI_5_2 5:5.67.0
 _ZN13KCalendarCore10Recurrence8addRDateERK5QDate@ABI_5_2 5:5.67.0
 _ZN13KCalendarCore10Recurrence8addRRuleEPNS_14RecurrenceRuleE@ABI_5_2 5:5.67.0
 _ZN13KCalendarCore10Recurrence8setDailyEi@ABI_5_2 5:5.67.0
 _ZN13KCalendarCore10Recurrence9addExDateERK5QDate@ABI_5_2 5:5.67.0
 _ZN13KCalendarCore10Recurrence9addExRuleEPNS_14RecurrenceRuleE@ABI_5_2 5:5.67.0
 _ZN13KCalendarCore10Recurrence9setAllDayEb@ABI_5_2 5:5.67.0
 _ZN13KCalendarCore10Recurrence9setHourlyEi@ABI_5_2 5:5.67.0
 _ZN13KCalendarCore10Recurrence9setRDatesERK5QListI5QDateE@ABI_5_2 5:5.67.0
 _ZN13KCalendarCore10Recurrence9setWeeklyEiRK9QBitArrayi@ABI_5_2 5:5.67.0
 _ZN13KCalendarCore10Recurrence9setWeeklyEii@ABI_5_2 5:5.67.0
 _ZN13KCalendarCore10Recurrence9setYearlyEi@ABI_5_2 5:5.67.0
 _ZN13KCalendarCore10RecurrenceC1ERKS0_@ABI_5_2 5:5.67.0
 _ZN13KCalendarCore10RecurrenceC1Ev@ABI_5_2 5:5.67.0
 _ZN13KCalendarCore10RecurrenceC2ERKS0_@ABI_5_2 5:5.67.0
 _ZN13KCalendarCore10RecurrenceC2Ev@ABI_5_2 5:5.67.0
 _ZN13KCalendarCore10RecurrenceD0Ev@ABI_5_2 5:5.67.0
 _ZN13KCalendarCore10RecurrenceD1Ev@ABI_5_2 5:5.67.0
 _ZN13KCalendarCore10RecurrenceD2Ev@ABI_5_2 5:5.67.0
 _ZN13KCalendarCore10RecurrenceaSERKS0_@ABI_5_2 5:5.67.0
 _ZN13KCalendarCore10VCalFormat10ISOToQDateERK7QString@ABI_5_2 5:5.67.0
 _ZN13KCalendarCore10VCalFormat10fromStringERK14QSharedPointerINS_8CalendarEERK7QStringbS8_@ABI_5_2 5:5.67.0
 _ZN13KCalendarCore10VCalFormat10numFromDayERK7QString@ABI_5_2 5:5.67.0
 _ZN13KCalendarCore10VCalFormat10qDateToISOERK5QDate@ABI_5_2 5:5.67.0
 _ZN13KCalendarCore10VCalFormat12VTodoToEventEP7VObject@ABI_5_2 5:5.67.0
 _ZN13KCalendarCore10VCalFormat12virtual_hookEiPv@ABI_5_2 5:5.67.0
 _ZN13KCalendarCore10VCalFormat13VEventToEventEP7VObject@ABI_5_2 5:5.67.0
 _ZN13KCalendarCore10VCalFormat13fromRawStringERK14QSharedPointerINS_8CalendarEERK10QByteArraybRK7QString@ABI_5_2 5:5.67.0
 _ZN13KCalendarCore10VCalFormat14ISOToQDateTimeERK7QString@ABI_5_2 5:5.67.0
 _ZN13KCalendarCore10VCalFormat14qDateTimeToISOERK9QDateTimeb@ABI_5_2 5:5.67.0
 _ZN13KCalendarCore10VCalFormat20parseTZOffsetISO8601ERK7QStringRi@ABI_5_2 5:5.67.0
 _ZN13KCalendarCore10VCalFormat20readCustomPropertiesEP7VObjectRK14QSharedPointerINS_9IncidenceEE@ABI_5_2 5:5.67.0
 _ZN13KCalendarCore10VCalFormat21writeCustomPropertiesEP7VObjectRK14QSharedPointerINS_9IncidenceEE@ABI_5_2 5:5.67.0
 _ZN13KCalendarCore10VCalFormat4loadERK14QSharedPointerINS_8CalendarEERK7QString@ABI_5_2 5:5.67.0
 _ZN13KCalendarCore10VCalFormat4saveERK14QSharedPointerINS_8CalendarEERK7QString@ABI_5_2 5:5.67.0
 _ZN13KCalendarCore10VCalFormat8populateEP7VObjectbRK7QString@ABI_5_2 5:5.67.0
 _ZN13KCalendarCore10VCalFormat8toStringERK14QSharedPointerINS_8CalendarEERK7QStringb@ABI_5_2 5:5.67.0
 _ZN13KCalendarCore10VCalFormatC1Ev@ABI_5_2 5:5.67.0
 _ZN13KCalendarCore10VCalFormatC2Ev@ABI_5_2 5:5.67.0
 _ZN13KCalendarCore10VCalFormatD0Ev@ABI_5_2 5:5.67.0
 _ZN13KCalendarCore10VCalFormatD1Ev@ABI_5_2 5:5.67.0
 _ZN13KCalendarCore10VCalFormatD2Ev@ABI_5_2 5:5.67.0
 _ZN13KCalendarCore11FileStorage11qt_metacallEN11QMetaObject4CallEiPPv@ABI_5_2 5:5.67.0
 _ZN13KCalendarCore11FileStorage11qt_metacastEPKc@ABI_5_2 5:5.67.0
 _ZN13KCalendarCore11FileStorage11setFileNameERK7QString@ABI_5_2 5:5.67.0
 _ZN13KCalendarCore11FileStorage13setSaveFormatEPNS_9CalFormatE@ABI_5_2 5:5.67.0
 _ZN13KCalendarCore11FileStorage16staticMetaObjectE@ABI_5_2 5:5.67.0
 _ZN13KCalendarCore11FileStorage4loadEv@ABI_5_2 5:5.67.0
 _ZN13KCalendarCore11FileStorage4openEv@ABI_5_2 5:5.67.0
 _ZN13KCalendarCore11FileStorage4saveEv@ABI_5_2 5:5.67.0
 _ZN13KCalendarCore11FileStorage5closeEv@ABI_5_2 5:5.67.0
 _ZN13KCalendarCore11FileStorageC1ERK14QSharedPointerINS_8CalendarEERK7QStringPNS_9CalFormatE@ABI_5_2 5:5.67.0
 _ZN13KCalendarCore11FileStorageC2ERK14QSharedPointerINS_8CalendarEERK7QStringPNS_9CalFormatE@ABI_5_2 5:5.67.0
 _ZN13KCalendarCore11FileStorageD0Ev@ABI_5_2 5:5.67.0
 _ZN13KCalendarCore11FileStorageD1Ev@ABI_5_2 5:5.67.0
 _ZN13KCalendarCore11FileStorageD2Ev@ABI_5_2 5:5.67.0
 _ZN13KCalendarCore13FreeBusyCache12virtual_hookEiPv@ABI_5_2 5:5.67.0
 _ZN13KCalendarCore13FreeBusyCacheD0Ev@ABI_5_2 5:5.67.0
 _ZN13KCalendarCore13FreeBusyCacheD1Ev@ABI_5_2 5:5.67.0
 _ZN13KCalendarCore13FreeBusyCacheD2Ev@ABI_5_2 5:5.67.0
 _ZN13KCalendarCore13IncidenceBase10addCommentERK7QString@ABI_5_2 5:5.67.0
 _ZN13KCalendarCore13IncidenceBase10addContactERK7QString@ABI_5_2 5:5.67.0
 _ZN13KCalendarCore13IncidenceBase10endUpdatesEv@ABI_5_2 5:5.67.0
 _ZN13KCalendarCore13IncidenceBase10setDtStartERK9QDateTime@ABI_5_2 5:5.67.0
 _ZN13KCalendarCore13IncidenceBase10shiftTimesERK9QTimeZoneS3_@ABI_5_2 5:5.67.0
 _ZN13KCalendarCore13IncidenceBase11addAttendeeERKNS_8AttendeeEb@ABI_5_2 5:5.67.0
 _ZN13KCalendarCore13IncidenceBase11deserializeER11QDataStream@ABI_5_2 5:5.67.0
 _ZN13KCalendarCore13IncidenceBase11setDurationERKNS_8DurationE@ABI_5_2 5:5.67.0
 _ZN13KCalendarCore13IncidenceBase11setReadOnlyEb@ABI_5_2 5:5.67.0
 _ZN13KCalendarCore13IncidenceBase12setAttendeesERK7QVectorINS_8AttendeeEEb@ABI_5_2 5:5.67.0
 _ZN13KCalendarCore13IncidenceBase12setOrganizerERK7QString@ABI_5_2 5:5.67.0
 _ZN13KCalendarCore13IncidenceBase12setOrganizerERKNS_6PersonE@ABI_5_2 5:5.67.0
 _ZN13KCalendarCore13IncidenceBase12startUpdatesEv@ABI_5_2 5:5.67.0
 _ZN13KCalendarCore13IncidenceBase13clearCommentsEv@ABI_5_2 5:5.67.0
 _ZN13KCalendarCore13IncidenceBase13clearContactsEv@ABI_5_2 5:5.67.0
 _ZN13KCalendarCore13IncidenceBase13removeCommentERK7QString@ABI_5_2 5:5.67.0
 _ZN13KCalendarCore13IncidenceBase13removeContactERK7QString@ABI_5_2 5:5.67.0
 _ZN13KCalendarCore13IncidenceBase13setFieldDirtyENS0_5FieldE@ABI_5_2 5:5.67.0
 _ZN13KCalendarCore13IncidenceBase14clearAttendeesEv@ABI_5_2 5:5.67.0
 _ZN13KCalendarCore13IncidenceBase14setDirtyFieldsERK4QSetINS0_5FieldEE@ABI_5_2 5:5.67.0
 _ZN13KCalendarCore13IncidenceBase14setHasDurationEb@ABI_5_2 5:5.67.0
 _ZN13KCalendarCore13IncidenceBase15setLastModifiedERK9QDateTime@ABI_5_2 5:5.67.0
 _ZN13KCalendarCore13IncidenceBase16registerObserverEPNS0_17IncidenceObserverE@ABI_5_2 5:5.67.0
 _ZN13KCalendarCore13IncidenceBase16resetDirtyFieldsEv@ABI_5_2 5:5.67.0
 _ZN13KCalendarCore13IncidenceBase16staticMetaObjectE@ABI_5_2 5:5.67.0
 _ZN13KCalendarCore13IncidenceBase17IncidenceObserverD0Ev@ABI_5_2 5:5.67.0
 _ZN13KCalendarCore13IncidenceBase17IncidenceObserverD1Ev@ABI_5_2 5:5.67.0
 _ZN13KCalendarCore13IncidenceBase17IncidenceObserverD2Ev@ABI_5_2 5:5.67.0
 _ZN13KCalendarCore13IncidenceBase18unRegisterObserverEPNS0_17IncidenceObserverE@ABI_5_2 5:5.67.0
 _ZN13KCalendarCore13IncidenceBase20customPropertyUpdateEv@ABI_5_2 5:5.67.0
 _ZN13KCalendarCore13IncidenceBase21customPropertyUpdatedEv@ABI_5_2 5:5.67.0
 _ZN13KCalendarCore13IncidenceBase28magicSerializationIdentifierEv@ABI_5_2 5:5.67.0
 _ZN13KCalendarCore13IncidenceBase6acceptERNS_7VisitorERK14QSharedPointerIS0_E@ABI_5_2 5:5.67.0
 _ZN13KCalendarCore13IncidenceBase6assignERKS0_@ABI_5_2 5:5.67.0
 _ZN13KCalendarCore13IncidenceBase6setUidERK7QString@ABI_5_2 5:5.67.0
 _ZN13KCalendarCore13IncidenceBase6setUrlERK4QUrl@ABI_5_2 5:5.67.0
 _ZN13KCalendarCore13IncidenceBase6updateEv@ABI_5_2 5:5.67.0
 _ZN13KCalendarCore13IncidenceBase7updatedEv@ABI_5_2 5:5.67.0
 _ZN13KCalendarCore13IncidenceBase9setAllDayEb@ABI_5_2 5:5.67.0
 _ZN13KCalendarCore13IncidenceBaseC1ERKS0_@ABI_5_2 5:5.67.0
 _ZN13KCalendarCore13IncidenceBaseC1Ev@ABI_5_2 5:5.67.0
 _ZN13KCalendarCore13IncidenceBaseC2ERKS0_@ABI_5_2 5:5.67.0
 _ZN13KCalendarCore13IncidenceBaseC2Ev@ABI_5_2 5:5.67.0
 _ZN13KCalendarCore13IncidenceBaseD0Ev@ABI_5_2 5:5.67.0
 _ZN13KCalendarCore13IncidenceBaseD1Ev@ABI_5_2 5:5.67.0
 _ZN13KCalendarCore13IncidenceBaseD2Ev@ABI_5_2 5:5.67.0
 _ZN13KCalendarCore13IncidenceBaseaSERKS0_@ABI_5_2 5:5.67.0
 _ZN13KCalendarCore14CalendarPlugin11qt_metacallEN11QMetaObject4CallEiPPv@ABI_5_2 5:5.85.0
 _ZN13KCalendarCore14CalendarPlugin11qt_metacastEPKc@ABI_5_2 5:5.85.0
 _ZN13KCalendarCore14CalendarPlugin16calendarsChangedEv@ABI_5_2 5:5.85.0
 _ZN13KCalendarCore14CalendarPlugin16staticMetaObjectE@ABI_5_2 5:5.85.0
 _ZN13KCalendarCore14CalendarPluginC1EP7QObjectRK5QListI8QVariantE@ABI_5_2 5:5.85.0
 _ZN13KCalendarCore14CalendarPluginC2EP7QObjectRK5QListI8QVariantE@ABI_5_2 5:5.85.0
 _ZN13KCalendarCore14FreeBusyPeriod10setSummaryERK7QString@ABI_5_2 5:5.67.0
 _ZN13KCalendarCore14FreeBusyPeriod11setLocationERK7QString@ABI_5_2 5:5.67.0
 _ZN13KCalendarCore14FreeBusyPeriod7setTypeENS0_12FreeBusyTypeE@ABI_5_2 5:5.67.0
 _ZN13KCalendarCore14FreeBusyPeriodC1ERK9QDateTimeRKNS_8DurationE@ABI_5_2 5:5.67.0
 _ZN13KCalendarCore14FreeBusyPeriodC1ERK9QDateTimeS3_@ABI_5_2 5:5.67.0
 _ZN13KCalendarCore14FreeBusyPeriodC1ERKNS_6PeriodE@ABI_5_2 5:5.67.0
 _ZN13KCalendarCore14FreeBusyPeriodC1ERKS0_@ABI_5_2 5:5.67.0
 _ZN13KCalendarCore14FreeBusyPeriodC1Ev@ABI_5_2 5:5.67.0
 _ZN13KCalendarCore14FreeBusyPeriodC2ERK9QDateTimeRKNS_8DurationE@ABI_5_2 5:5.67.0
 _ZN13KCalendarCore14FreeBusyPeriodC2ERK9QDateTimeS3_@ABI_5_2 5:5.67.0
 _ZN13KCalendarCore14FreeBusyPeriodC2ERKNS_6PeriodE@ABI_5_2 5:5.67.0
 _ZN13KCalendarCore14FreeBusyPeriodC2ERKS0_@ABI_5_2 5:5.67.0
 _ZN13KCalendarCore14FreeBusyPeriodC2Ev@ABI_5_2 5:5.67.0
 _ZN13KCalendarCore14FreeBusyPeriodD1Ev@ABI_5_2 5:5.67.0
 _ZN13KCalendarCore14FreeBusyPeriodD2Ev@ABI_5_2 5:5.67.0
 _ZN13KCalendarCore14FreeBusyPeriodaSERKS0_@ABI_5_2 5:5.67.0
 _ZN13KCalendarCore14MemoryCalendar10addJournalERK14QSharedPointerINS_7JournalEE@ABI_5_2 5:5.67.0
 _ZN13KCalendarCore14MemoryCalendar10deleteTodoERK14QSharedPointerINS_4TodoEE@ABI_5_2 5:5.67.0
 _ZN13KCalendarCore14MemoryCalendar11deleteEventERK14QSharedPointerINS_5EventEE@ABI_5_2 5:5.67.0
 _ZN13KCalendarCore14MemoryCalendar11qt_metacallEN11QMetaObject4CallEiPPv@ABI_5_2 5:5.67.0
 _ZN13KCalendarCore14MemoryCalendar11qt_metacastEPKc@ABI_5_2 5:5.67.0
 _ZN13KCalendarCore14MemoryCalendar12addIncidenceERK14QSharedPointerINS_9IncidenceEE@ABI_5_2 5:5.67.0
 _ZN13KCalendarCore14MemoryCalendar12virtual_hookEiPv@ABI_5_2 5:5.67.0
 _ZN13KCalendarCore14MemoryCalendar13deleteJournalERK14QSharedPointerINS_7JournalEE@ABI_5_2 5:5.67.0
 _ZN13KCalendarCore14MemoryCalendar13doSetTimeZoneERK9QTimeZone@ABI_5_2 5:5.67.0
 _ZN13KCalendarCore14MemoryCalendar15deleteIncidenceERK14QSharedPointerINS_9IncidenceEE@ABI_5_2 5:5.67.0
 _ZN13KCalendarCore14MemoryCalendar15incidenceUpdateERK7QStringRK9QDateTime@ABI_5_2 5:5.67.0
 _ZN13KCalendarCore14MemoryCalendar16incidenceUpdatedERK7QStringRK9QDateTime@ABI_5_2 5:5.67.0
 _ZN13KCalendarCore14MemoryCalendar16staticMetaObjectE@ABI_5_2 5:5.67.0
 _ZN13KCalendarCore14MemoryCalendar19deleteTodoInstancesERK14QSharedPointerINS_4TodoEE@ABI_5_2 5:5.67.0
 _ZN13KCalendarCore14MemoryCalendar20deleteEventInstancesERK14QSharedPointerINS_5EventEE@ABI_5_2 5:5.67.0
 _ZN13KCalendarCore14MemoryCalendar22deleteJournalInstancesERK14QSharedPointerINS_7JournalEE@ABI_5_2 5:5.67.0
 _ZN13KCalendarCore14MemoryCalendar24deleteIncidenceInstancesERK14QSharedPointerINS_9IncidenceEE@ABI_5_2 5:5.67.0
 _ZN13KCalendarCore14MemoryCalendar29setUpdateLastModifiedOnChangeEb@ABI_5_2 5:5.80.0
 _ZN13KCalendarCore14MemoryCalendar5closeEv@ABI_5_2 5:5.67.0
 _ZN13KCalendarCore14MemoryCalendar7addTodoERK14QSharedPointerINS_4TodoEE@ABI_5_2 5:5.67.0
 _ZN13KCalendarCore14MemoryCalendar8addEventERK14QSharedPointerINS_5EventEE@ABI_5_2 5:5.67.0
 _ZN13KCalendarCore14MemoryCalendarC1ERK10QByteArray@ABI_5_2 5:5.67.0
 _ZN13KCalendarCore14MemoryCalendarC1ERK9QTimeZone@ABI_5_2 5:5.67.0
 _ZN13KCalendarCore14MemoryCalendarC2ERK10QByteArray@ABI_5_2 5:5.67.0
 _ZN13KCalendarCore14MemoryCalendarC2ERK9QTimeZone@ABI_5_2 5:5.67.0
 _ZN13KCalendarCore14MemoryCalendarD0Ev@ABI_5_2 5:5.67.0
 _ZN13KCalendarCore14MemoryCalendarD1Ev@ABI_5_2 5:5.67.0
 _ZN13KCalendarCore14MemoryCalendarD2Ev@ABI_5_2 5:5.67.0
 _ZN13KCalendarCore14RecurrenceRule10setByHoursERK5QListIiE@ABI_5_2 5:5.67.0
 _ZN13KCalendarCore14RecurrenceRule10setStartDtERK9QDateTime@ABI_5_2 5:5.67.0
 _ZN13KCalendarCore14RecurrenceRule10shiftTimesERK9QTimeZoneS3_@ABI_5_2 5:5.67.0
 _ZN13KCalendarCore14RecurrenceRule11addObserverEPNS0_12RuleObserverE@ABI_5_2 5:5.67.0
 _ZN13KCalendarCore14RecurrenceRule11setByMonthsERK5QListIiE@ABI_5_2 5:5.67.0
 _ZN13KCalendarCore14RecurrenceRule11setBySetPosERK5QListIiE@ABI_5_2 5:5.67.0
 _ZN13KCalendarCore14RecurrenceRule11setDurationEi@ABI_5_2 5:5.67.0
 _ZN13KCalendarCore14RecurrenceRule11setReadOnlyEb@ABI_5_2 5:5.67.0
 _ZN13KCalendarCore14RecurrenceRule12RuleObserverD0Ev@ABI_5_2 5:5.67.0
 _ZN13KCalendarCore14RecurrenceRule12RuleObserverD1Ev@ABI_5_2 5:5.67.0
 _ZN13KCalendarCore14RecurrenceRule12RuleObserverD2Ev@ABI_5_2 5:5.67.0
 _ZN13KCalendarCore14RecurrenceRule12setByMinutesERK5QListIiE@ABI_5_2 5:5.67.0
 _ZN13KCalendarCore14RecurrenceRule12setBySecondsERK5QListIiE@ABI_5_2 5:5.67.0
 _ZN13KCalendarCore14RecurrenceRule12setFrequencyEi@ABI_5_2 5:5.67.0
 _ZN13KCalendarCore14RecurrenceRule12setWeekStartEs@ABI_5_2 5:5.67.0
 _ZN13KCalendarCore14RecurrenceRule13setByYearDaysERK5QListIiE@ABI_5_2 5:5.67.0
 _ZN13KCalendarCore14RecurrenceRule14removeObserverEPNS0_12RuleObserverE@ABI_5_2 5:5.67.0
 _ZN13KCalendarCore14RecurrenceRule14setByMonthDaysERK5QListIiE@ABI_5_2 5:5.67.0
 _ZN13KCalendarCore14RecurrenceRule16setByWeekNumbersERK5QListIiE@ABI_5_2 5:5.67.0
 _ZN13KCalendarCore14RecurrenceRule17setRecurrenceTypeENS0_10PeriodTypeE@ABI_5_2 5:5.67.0
 _ZN13KCalendarCore14RecurrenceRule5clearEv@ABI_5_2 5:5.67.0
 _ZN13KCalendarCore14RecurrenceRule7WDayPos6setDayEs@ABI_5_2 5:5.67.0
 _ZN13KCalendarCore14RecurrenceRule7WDayPos6setPosEi@ABI_5_2 5:5.67.0
 _ZN13KCalendarCore14RecurrenceRule7WDayPosC1Eis@ABI_5_2 5:5.67.0
 _ZN13KCalendarCore14RecurrenceRule7WDayPosC2Eis@ABI_5_2 5:5.67.0
 _ZN13KCalendarCore14RecurrenceRule8setDirtyEv@ABI_5_2 5:5.67.0
 _ZN13KCalendarCore14RecurrenceRule8setEndDtERK9QDateTime@ABI_5_2 5:5.67.0
 _ZN13KCalendarCore14RecurrenceRule8setRRuleERK7QString@ABI_5_2 5:5.67.0
 _ZN13KCalendarCore14RecurrenceRule9setAllDayEb@ABI_5_2 5:5.67.0
 _ZN13KCalendarCore14RecurrenceRule9setByDaysERK5QListINS0_7WDayPosEE@ABI_5_2 5:5.67.0
 _ZN13KCalendarCore14RecurrenceRuleC1ERKS0_@ABI_5_2 5:5.67.0
 _ZN13KCalendarCore14RecurrenceRuleC1Ev@ABI_5_2 5:5.67.0
 _ZN13KCalendarCore14RecurrenceRuleC2ERKS0_@ABI_5_2 5:5.67.0
 _ZN13KCalendarCore14RecurrenceRuleC2Ev@ABI_5_2 5:5.67.0
 _ZN13KCalendarCore14RecurrenceRuleD1Ev@ABI_5_2 5:5.67.0
 _ZN13KCalendarCore14RecurrenceRuleD2Ev@ABI_5_2 5:5.67.0
 _ZN13KCalendarCore14RecurrenceRuleaSERKS0_@ABI_5_2 5:5.67.0
 _ZN13KCalendarCore15ScheduleMessage10methodNameENS_10iTIPMethodE@ABI_5_2 5:5.67.0
 _ZN13KCalendarCore15ScheduleMessageC1ERK14QSharedPointerINS_13IncidenceBaseEENS_10iTIPMethodENS0_6StatusE@ABI_5_2 5:5.67.0
 _ZN13KCalendarCore15ScheduleMessageC2ERK14QSharedPointerINS_13IncidenceBaseEENS_10iTIPMethodENS0_6StatusE@ABI_5_2 5:5.67.0
 _ZN13KCalendarCore15ScheduleMessageD1Ev@ABI_5_2 5:5.67.0
 _ZN13KCalendarCore15ScheduleMessageD2Ev@ABI_5_2 5:5.67.0
 _ZN13KCalendarCore16CustomProperties17setCustomPropertyERK10QByteArrayS3_RK7QString@ABI_5_2 5:5.67.0
 _ZN13KCalendarCore16CustomProperties18customPropertyNameERK10QByteArrayS3_@ABI_5_2 5:5.67.0
 _ZN13KCalendarCore16CustomProperties19setCustomPropertiesERK4QMapI10QByteArray7QStringE@ABI_5_2 5:5.67.0
 _ZN13KCalendarCore16CustomProperties20customPropertyUpdateEv@ABI_5_2 5:5.67.0
 _ZN13KCalendarCore16CustomProperties20removeCustomPropertyERK10QByteArrayS3_@ABI_5_2 5:5.67.0
 _ZN13KCalendarCore16CustomProperties21customPropertyUpdatedEv@ABI_5_2 5:5.67.0
 _ZN13KCalendarCore16CustomProperties23setNonKDECustomPropertyERK10QByteArrayRK7QStringS6_@ABI_5_2 5:5.67.0
 _ZN13KCalendarCore16CustomProperties26removeNonKDECustomPropertyERK10QByteArray@ABI_5_2 5:5.67.0
 _ZN13KCalendarCore16CustomPropertiesC1ERKS0_@ABI_5_2 5:5.67.0
 _ZN13KCalendarCore16CustomPropertiesC1Ev@ABI_5_2 5:5.67.0
 _ZN13KCalendarCore16CustomPropertiesC2ERKS0_@ABI_5_2 5:5.67.0
 _ZN13KCalendarCore16CustomPropertiesC2Ev@ABI_5_2 5:5.67.0
 _ZN13KCalendarCore16CustomPropertiesD0Ev@ABI_5_2 5:5.67.0
 _ZN13KCalendarCore16CustomPropertiesD1Ev@ABI_5_2 5:5.67.0
 _ZN13KCalendarCore16CustomPropertiesD2Ev@ABI_5_2 5:5.67.0
 _ZN13KCalendarCore16CustomPropertiesaSERKS0_@ABI_5_2 5:5.67.0
 _ZN13KCalendarCore17ICalTimeZoneCache6insertERK10QByteArrayRKNS_12ICalTimeZoneE@ABI_5_2 5:5.67.0
 _ZN13KCalendarCore17ICalTimeZoneCacheC1Ev@ABI_5_2 5:5.67.0
 _ZN13KCalendarCore17ICalTimeZoneCacheC2Ev@ABI_5_2 5:5.67.0
 _ZN13KCalendarCore18ICalTimeZoneParser10parsePhaseEP18icalcomponent_implbRNS_17ICalTimeZonePhaseE@ABI_5_2 5:5.67.0
 _ZN13KCalendarCore18ICalTimeZoneParser13parseTimeZoneEP18icalcomponent_impl@ABI_5_2 5:5.67.0
 _ZN13KCalendarCore18ICalTimeZoneParser19resolveICalTimeZoneERKNS_12ICalTimeZoneE@ABI_5_2 5:5.67.0
 _ZN13KCalendarCore18ICalTimeZoneParser20updateTzEarliestDateERK14QSharedPointerINS_13IncidenceBaseEEP5QHashI9QTimeZone9QDateTimeE@ABI_5_2 5:5.67.0
 _ZN13KCalendarCore18ICalTimeZoneParser25icaltimezoneFromQTimeZoneERK9QTimeZoneRK9QDateTime@ABI_5_2 5:5.67.0
 _ZN13KCalendarCore18ICalTimeZoneParser25vcaltimezoneFromQTimeZoneERK9QTimeZoneRK9QDateTime@ABI_5_2 5:5.67.0
 _ZN13KCalendarCore18ICalTimeZoneParser26icalcomponentFromQTimeZoneERK9QTimeZoneRK9QDateTime@ABI_5_2 5:5.67.0
 _ZN13KCalendarCore18ICalTimeZoneParser5parseEP18icalcomponent_impl@ABI_5_2 5:5.67.0
 _ZN13KCalendarCore18ICalTimeZoneParserC1EPNS_17ICalTimeZoneCacheE@ABI_5_2 5:5.67.0
 _ZN13KCalendarCore18ICalTimeZoneParserC2EPNS_17ICalTimeZoneCacheE@ABI_5_2 5:5.67.0
 _ZN13KCalendarCore18OccurrenceIterator4nextEv@ABI_5_2 5:5.67.0
 _ZN13KCalendarCore18OccurrenceIteratorC1ERKNS_8CalendarERK14QSharedPointerINS_9IncidenceEERK9QDateTimeSB_@ABI_5_2 5:5.67.0
 _ZN13KCalendarCore18OccurrenceIteratorC1ERKNS_8CalendarERK9QDateTimeS6_@ABI_5_2 5:5.67.0
 _ZN13KCalendarCore18OccurrenceIteratorC2ERKNS_8CalendarERK14QSharedPointerINS_9IncidenceEERK9QDateTimeSB_@ABI_5_2 5:5.67.0
 _ZN13KCalendarCore18OccurrenceIteratorC2ERKNS_8CalendarERK9QDateTimeS6_@ABI_5_2 5:5.67.0
 _ZN13KCalendarCore18OccurrenceIteratorD1Ev@ABI_5_2 5:5.67.0
 _ZN13KCalendarCore18OccurrenceIteratorD2Ev@ABI_5_2 5:5.67.0
 _ZN13KCalendarCore31deserializeKDateTimeAsQDateTimeER11QDataStream@ABI_5_2 5:5.85.0
 _ZN13KCalendarCore31deserializeKDateTimeAsQDateTimeER11QDataStreamR9QDateTime@ABI_5_2 5:5.67.0
 _ZN13KCalendarCore4Todo10shiftTimesERK9QTimeZoneS3_@ABI_5_2 5:5.67.0
 _ZN13KCalendarCore4Todo11deserializeER11QDataStream@ABI_5_2 5:5.67.0
 _ZN13KCalendarCore4Todo11setDateTimeERK9QDateTimeNS_13IncidenceBase12DateTimeRoleE@ABI_5_2 5:5.67.0
 _ZN13KCalendarCore4Todo12setCompletedERK9QDateTime@ABI_5_2 5:5.67.0
 _ZN13KCalendarCore4Todo12setCompletedEb@ABI_5_2 5:5.67.0
 _ZN13KCalendarCore4Todo12todoMimeTypeEv@ABI_5_2 5:5.67.0
 _ZN13KCalendarCore4Todo12virtual_hookENS_13IncidenceBase11VirtualHookEPv@ABI_5_2 5:5.67.0
 _ZN13KCalendarCore4Todo15setDtRecurrenceERK9QDateTime@ABI_5_2 5:5.67.0
 _ZN13KCalendarCore4Todo18setPercentCompleteEi@ABI_5_2 5:5.67.0
 _ZN13KCalendarCore4Todo6acceptERNS_7VisitorERK14QSharedPointerINS_13IncidenceBaseEE@ABI_5_2 5:5.67.0
 _ZN13KCalendarCore4Todo6assignERKNS_13IncidenceBaseE@ABI_5_2 5:5.67.0
 _ZN13KCalendarCore4Todo8setDtDueERK9QDateTimeb@ABI_5_2 5:5.67.0
 _ZN13KCalendarCore4Todo9setAllDayEb@ABI_5_2 5:5.67.0
 _ZN13KCalendarCore4TodoC1ERKNS_9IncidenceE@ABI_5_2 5:5.67.0
 _ZN13KCalendarCore4TodoC1ERKS0_@ABI_5_2 5:5.67.0
 _ZN13KCalendarCore4TodoC1Ev@ABI_5_2 5:5.67.0
 _ZN13KCalendarCore4TodoC2ERKNS_9IncidenceE@ABI_5_2 5:5.67.0
 _ZN13KCalendarCore4TodoC2ERKS0_@ABI_5_2 5:5.67.0
 _ZN13KCalendarCore4TodoC2Ev@ABI_5_2 5:5.67.0
 _ZN13KCalendarCore4TodoD0Ev@ABI_5_2 5:5.67.0
 _ZN13KCalendarCore4TodoD1Ev@ABI_5_2 5:5.67.0
 _ZN13KCalendarCore4TodoD2Ev@ABI_5_2 5:5.67.0
 _ZN13KCalendarCore5Alarm10setEnabledEb@ABI_5_2 5:5.67.0
 _ZN13KCalendarCore5Alarm10shiftTimesERK9QTimeZoneS3_@ABI_5_2 5:5.67.0
 _ZN13KCalendarCore5Alarm11setMailTextERK7QString@ABI_5_2 5:5.67.0
 _ZN13KCalendarCore5Alarm11toggleAlarmEv@ABI_5_2 5:5.67.0
 _ZN13KCalendarCore5Alarm12setAudioFileERK7QString@ABI_5_2 5:5.67.0
 _ZN13KCalendarCore5Alarm12setEndOffsetERKNS_8DurationE@ABI_5_2 5:5.67.0
 _ZN13KCalendarCore5Alarm12virtual_hookEiPv@ABI_5_2 5:5.67.0
 _ZN13KCalendarCore5Alarm13setAudioAlarmERK7QString@ABI_5_2 5:5.67.0
 _ZN13KCalendarCore5Alarm13setEmailAlarmERK7QStringS3_RK7QVectorINS_6PersonEERK11QStringList@ABI_5_2 5:5.67.0
 _ZN13KCalendarCore5Alarm13setSnoozeTimeERKNS_8DurationE@ABI_5_2 5:5.67.0
 _ZN13KCalendarCore5Alarm14addMailAddressERKNS_6PersonE@ABI_5_2 5:5.67.0
 _ZN13KCalendarCore5Alarm14setMailAddressERKNS_6PersonE@ABI_5_2 5:5.67.0
 _ZN13KCalendarCore5Alarm14setMailSubjectERK7QString@ABI_5_2 5:5.67.0
 _ZN13KCalendarCore5Alarm14setProgramFileERK7QString@ABI_5_2 5:5.67.0
 _ZN13KCalendarCore5Alarm14setRepeatCountEi@ABI_5_2 5:5.67.0
 _ZN13KCalendarCore5Alarm14setStartOffsetERKNS_8DurationE@ABI_5_2 5:5.67.0
 _ZN13KCalendarCore5Alarm15setDisplayAlarmERK7QString@ABI_5_2 5:5.67.0
 _ZN13KCalendarCore5Alarm16setMailAddressesERK7QVectorINS_6PersonEE@ABI_5_2 5:5.67.0
 _ZN13KCalendarCore5Alarm17addMailAttachmentERK7QString@ABI_5_2 5:5.67.0
 _ZN13KCalendarCore5Alarm17setLocationRadiusEi@ABI_5_2 5:5.67.0
 _ZN13KCalendarCore5Alarm17setMailAttachmentERK7QString@ABI_5_2 5:5.67.0
 _ZN13KCalendarCore5Alarm17setProcedureAlarmERK7QStringS3_@ABI_5_2 5:5.67.0
 _ZN13KCalendarCore5Alarm18setMailAttachmentsERK11QStringList@ABI_5_2 5:5.67.0
 _ZN13KCalendarCore5Alarm19setProgramArgumentsERK7QString@ABI_5_2 5:5.67.0
 _ZN13KCalendarCore5Alarm20setHasLocationRadiusEb@ABI_5_2 5:5.67.0
 _ZN13KCalendarCore5Alarm21customPropertyUpdatedEv@ABI_5_2 5:5.67.0
 _ZN13KCalendarCore5Alarm7setTextERK7QString@ABI_5_2 5:5.67.0
 _ZN13KCalendarCore5Alarm7setTimeERK9QDateTime@ABI_5_2 5:5.67.0
 _ZN13KCalendarCore5Alarm7setTypeENS0_4TypeE@ABI_5_2 5:5.67.0
 _ZN13KCalendarCore5Alarm9setParentEPNS_9IncidenceE@ABI_5_2 5:5.67.0
 _ZN13KCalendarCore5AlarmC1EPNS_9IncidenceE@ABI_5_2 5:5.67.0
 _ZN13KCalendarCore5AlarmC1ERKS0_@ABI_5_2 5:5.67.0
 _ZN13KCalendarCore5AlarmC2EPNS_9IncidenceE@ABI_5_2 5:5.67.0
 _ZN13KCalendarCore5AlarmC2ERKS0_@ABI_5_2 5:5.67.0
 _ZN13KCalendarCore5AlarmD0Ev@ABI_5_2 5:5.67.0
 _ZN13KCalendarCore5AlarmD1Ev@ABI_5_2 5:5.67.0
 _ZN13KCalendarCore5AlarmD2Ev@ABI_5_2 5:5.67.0
 _ZN13KCalendarCore5AlarmaSERKS0_@ABI_5_2 5:5.67.0
 _ZN13KCalendarCore5Event10setDtStartERK9QDateTime@ABI_5_2 5:5.67.0
 _ZN13KCalendarCore5Event10shiftTimesERK9QTimeZoneS3_@ABI_5_2 5:5.67.0
 _ZN13KCalendarCore5Event11deserializeER11QDataStream@ABI_5_2 5:5.67.0
 _ZN13KCalendarCore5Event11setDateTimeERK9QDateTimeNS_13IncidenceBase12DateTimeRoleE@ABI_5_2 5:5.67.0
 _ZN13KCalendarCore5Event11setDurationERKNS_8DurationE@ABI_5_2 5:5.67.0
 _ZN13KCalendarCore5Event12virtual_hookENS_13IncidenceBase11VirtualHookEPv@ABI_5_2 5:5.67.0
 _ZN13KCalendarCore5Event13eventMimeTypeEv@ABI_5_2 5:5.67.0
 _ZN13KCalendarCore5Event15setTransparencyENS0_12TransparencyE@ABI_5_2 5:5.67.0
 _ZN13KCalendarCore5Event16staticMetaObjectE@ABI_5_2 5:5.67.0
 _ZN13KCalendarCore5Event6acceptERNS_7VisitorERK14QSharedPointerINS_13IncidenceBaseEE@ABI_5_2 5:5.67.0
 _ZN13KCalendarCore5Event6assignERKNS_13IncidenceBaseE@ABI_5_2 5:5.67.0
 _ZN13KCalendarCore5Event8setDtEndERK9QDateTime@ABI_5_2 5:5.67.0
 _ZN13KCalendarCore5Event9setAllDayEb@ABI_5_2 5:5.67.0
 _ZN13KCalendarCore5EventC1ERKNS_9IncidenceE@ABI_5_2 5:5.67.0
 _ZN13KCalendarCore5EventC1ERKS0_@ABI_5_2 5:5.67.0
 _ZN13KCalendarCore5EventC1Ev@ABI_5_2 5:5.67.0
 _ZN13KCalendarCore5EventC2ERKNS_9IncidenceE@ABI_5_2 5:5.67.0
 _ZN13KCalendarCore5EventC2ERKS0_@ABI_5_2 5:5.67.0
 _ZN13KCalendarCore5EventC2Ev@ABI_5_2 5:5.67.0
 _ZN13KCalendarCore5EventD0Ev@ABI_5_2 5:5.67.0
 _ZN13KCalendarCore5EventD1Ev@ABI_5_2 5:5.67.0
 _ZN13KCalendarCore5EventD2Ev@ABI_5_2 5:5.67.0
 _ZN13KCalendarCore5Todos15createdLessThanERK14QSharedPointerINS_4TodoEES5_@ABI_5_2 5:5.67.0
 _ZN13KCalendarCore5Todos15createdMoreThanERK14QSharedPointerINS_4TodoEES5_@ABI_5_2 5:5.67.0
 _ZN13KCalendarCore5Todos15dueDateLessThanERK14QSharedPointerINS_4TodoEES5_@ABI_5_2 5:5.67.0
 _ZN13KCalendarCore5Todos15dueDateMoreThanERK14QSharedPointerINS_4TodoEES5_@ABI_5_2 5:5.67.0
 _ZN13KCalendarCore5Todos15percentLessThanERK14QSharedPointerINS_4TodoEES5_@ABI_5_2 5:5.67.0
 _ZN13KCalendarCore5Todos15percentMoreThanERK14QSharedPointerINS_4TodoEES5_@ABI_5_2 5:5.67.0
 _ZN13KCalendarCore5Todos15summaryLessThanERK14QSharedPointerINS_4TodoEES5_@ABI_5_2 5:5.67.0
 _ZN13KCalendarCore5Todos15summaryMoreThanERK14QSharedPointerINS_4TodoEES5_@ABI_5_2 5:5.67.0
 _ZN13KCalendarCore5Todos16priorityLessThanERK14QSharedPointerINS_4TodoEES5_@ABI_5_2 5:5.67.0
 _ZN13KCalendarCore5Todos16priorityMoreThanERK14QSharedPointerINS_4TodoEES5_@ABI_5_2 5:5.67.0
 _ZN13KCalendarCore5Todos17startDateLessThanERK14QSharedPointerINS_4TodoEES5_@ABI_5_2 5:5.67.0
 _ZN13KCalendarCore5Todos17startDateMoreThanERK14QSharedPointerINS_4TodoEES5_@ABI_5_2 5:5.67.0
 _ZN13KCalendarCore5qHashERKNS_6PeriodE@ABI_5_2 5:5.67.0
 _ZN13KCalendarCore5qHashERKNS_6PersonE@ABI_5_2 5:5.67.0
 _ZN13KCalendarCore6Events15endDateLessThanERK14QSharedPointerINS_5EventEES5_@ABI_5_2 5:5.67.0
 _ZN13KCalendarCore6Events15endDateMoreThanERK14QSharedPointerINS_5EventEES5_@ABI_5_2 5:5.67.0
 _ZN13KCalendarCore6Events15summaryLessThanERK14QSharedPointerINS_5EventEES5_@ABI_5_2 5:5.67.0
 _ZN13KCalendarCore6Events15summaryMoreThanERK14QSharedPointerINS_5EventEES5_@ABI_5_2 5:5.67.0
 _ZN13KCalendarCore6Events17startDateLessThanERK14QSharedPointerINS_5EventEES5_@ABI_5_2 5:5.67.0
 _ZN13KCalendarCore6Events17startDateMoreThanERK14QSharedPointerINS_5EventEES5_@ABI_5_2 5:5.67.0
 _ZN13KCalendarCore6Period10shiftTimesERK9QTimeZoneS3_@ABI_5_2 5:5.67.0
 _ZN13KCalendarCore6PeriodC1ERK9QDateTimeRKNS_8DurationE@ABI_5_2 5:5.67.0
 _ZN13KCalendarCore6PeriodC1ERK9QDateTimeS3_@ABI_5_2 5:5.67.0
 _ZN13KCalendarCore6PeriodC1ERKS0_@ABI_5_2 5:5.67.0
 _ZN13KCalendarCore6PeriodC1Ev@ABI_5_2 5:5.67.0
 _ZN13KCalendarCore6PeriodC2ERK9QDateTimeRKNS_8DurationE@ABI_5_2 5:5.67.0
 _ZN13KCalendarCore6PeriodC2ERK9QDateTimeS3_@ABI_5_2 5:5.67.0
 _ZN13KCalendarCore6PeriodC2ERKS0_@ABI_5_2 5:5.67.0
 _ZN13KCalendarCore6PeriodC2Ev@ABI_5_2 5:5.67.0
 _ZN13KCalendarCore6PeriodD1Ev@ABI_5_2 5:5.67.0
 _ZN13KCalendarCore6PeriodD2Ev@ABI_5_2 5:5.67.0
 _ZN13KCalendarCore6PeriodaSERKS0_@ABI_5_2 5:5.67.0
 _ZN13KCalendarCore6Person12fromFullNameERK7QString@ABI_5_2 5:5.67.0
 _ZN13KCalendarCore6Person12isValidEmailERK7QString@ABI_5_2 5:5.67.0
 _ZN13KCalendarCore6Person16staticMetaObjectE@ABI_5_2 5:5.67.0
 _ZN13KCalendarCore6Person7setNameERK7QString@ABI_5_2 5:5.67.0
 _ZN13KCalendarCore6Person8setEmailERK7QString@ABI_5_2 5:5.67.0
 _ZN13KCalendarCore6PersonC1ERK7QStringS3_@ABI_5_2 5:5.67.0
 _ZN13KCalendarCore6PersonC1ERKS0_@ABI_5_2 5:5.67.0
 _ZN13KCalendarCore6PersonC1Ev@ABI_5_2 5:5.67.0
 _ZN13KCalendarCore6PersonC2ERK7QStringS3_@ABI_5_2 5:5.67.0
 _ZN13KCalendarCore6PersonC2ERKS0_@ABI_5_2 5:5.67.0
 _ZN13KCalendarCore6PersonC2Ev@ABI_5_2 5:5.67.0
 _ZN13KCalendarCore6PersonD0Ev@ABI_5_2 5:5.67.0
 _ZN13KCalendarCore6PersonD1Ev@ABI_5_2 5:5.67.0
 _ZN13KCalendarCore6PersonD2Ev@ABI_5_2 5:5.67.0
 _ZN13KCalendarCore6PersonaSERKS0_@ABI_5_2 5:5.67.0
 _ZN13KCalendarCore7Journal11deserializeER11QDataStream@ABI_5_2 5:5.67.0
 _ZN13KCalendarCore7Journal11setDateTimeERK9QDateTimeNS_13IncidenceBase12DateTimeRoleE@ABI_5_2 5:5.67.0
 _ZN13KCalendarCore7Journal12virtual_hookENS_13IncidenceBase11VirtualHookEPv@ABI_5_2 5:5.67.0
 _ZN13KCalendarCore7Journal15journalMimeTypeEv@ABI_5_2 5:5.67.0
 _ZN13KCalendarCore7Journal6acceptERNS_7VisitorERK14QSharedPointerINS_13IncidenceBaseEE@ABI_5_2 5:5.67.0
 _ZN13KCalendarCore7Journal6assignERKNS_13IncidenceBaseE@ABI_5_2 5:5.67.0
 _ZN13KCalendarCore7JournalC1ERKS0_@ABI_5_2 5:5.67.0
 _ZN13KCalendarCore7JournalC1Ev@ABI_5_2 5:5.67.0
 _ZN13KCalendarCore7JournalC2ERKS0_@ABI_5_2 5:5.67.0
 _ZN13KCalendarCore7JournalC2Ev@ABI_5_2 5:5.67.0
 _ZN13KCalendarCore7JournalD0Ev@ABI_5_2 5:5.67.0
 _ZN13KCalendarCore7JournalD1Ev@ABI_5_2 5:5.67.0
 _ZN13KCalendarCore7JournalD2Ev@ABI_5_2 5:5.67.0
 _ZN13KCalendarCore7Visitor5visitERK14QSharedPointerINS_4TodoEE@ABI_5_2 5:5.67.0
 _ZN13KCalendarCore7Visitor5visitERK14QSharedPointerINS_5EventEE@ABI_5_2 5:5.67.0
 _ZN13KCalendarCore7Visitor5visitERK14QSharedPointerINS_7JournalEE@ABI_5_2 5:5.67.0
 _ZN13KCalendarCore7Visitor5visitERK14QSharedPointerINS_8FreeBusyEE@ABI_5_2 5:5.67.0
 _ZN13KCalendarCore7VisitorC1Ev@ABI_5_2 5:5.67.0
 _ZN13KCalendarCore7VisitorC2Ev@ABI_5_2 5:5.67.0
 _ZN13KCalendarCore7VisitorD0Ev@ABI_5_2 5:5.67.0
 _ZN13KCalendarCore7VisitorD1Ev@ABI_5_2 5:5.67.0
 _ZN13KCalendarCore7VisitorD2Ev@ABI_5_2 5:5.67.0
 _ZN13KCalendarCore8Attendee11setDelegateERK7QString@ABI_5_2 5:5.67.0
 _ZN13KCalendarCore8Attendee12setDelegatorERK7QString@ABI_5_2 5:5.67.0
 _ZN13KCalendarCore8Attendee16customPropertiesEv@ABI_5_2 5:5.67.0
 _ZN13KCalendarCore8Attendee16staticMetaObjectE@ABI_5_2 5:5.67.0
 _ZN13KCalendarCore8Attendee17setCustomPropertyERK10QByteArrayRK7QString@ABI_5_2 5:5.67.0
 _ZN13KCalendarCore8Attendee6setUidERK7QString@ABI_5_2 5:5.67.0
 _ZN13KCalendarCore8Attendee7setNameERK7QString@ABI_5_2 5:5.67.0
 _ZN13KCalendarCore8Attendee7setRSVPEb@ABI_5_2 5:5.67.0
 _ZN13KCalendarCore8Attendee7setRoleENS0_4RoleE@ABI_5_2 5:5.67.0
 _ZN13KCalendarCore8Attendee8setEmailERK7QString@ABI_5_2 5:5.67.0
 _ZN13KCalendarCore8Attendee9setCuTypeENS0_6CuTypeE@ABI_5_2 5:5.67.0
 _ZN13KCalendarCore8Attendee9setCuTypeERK7QString@ABI_5_2 5:5.67.0
 _ZN13KCalendarCore8Attendee9setStatusENS0_8PartStatE@ABI_5_2 5:5.67.0
 _ZN13KCalendarCore8AttendeeC1ERK7QStringS3_bNS0_8PartStatENS0_4RoleES3_@ABI_5_2 5:5.67.0
 _ZN13KCalendarCore8AttendeeC1ERKS0_@ABI_5_2 5:5.67.0
 _ZN13KCalendarCore8AttendeeC1Ev@ABI_5_2 5:5.67.0
 _ZN13KCalendarCore8AttendeeC2ERK7QStringS3_bNS0_8PartStatENS0_4RoleES3_@ABI_5_2 5:5.67.0
 _ZN13KCalendarCore8AttendeeC2ERKS0_@ABI_5_2 5:5.67.0
 _ZN13KCalendarCore8AttendeeC2Ev@ABI_5_2 5:5.67.0
 _ZN13KCalendarCore8AttendeeD1Ev@ABI_5_2 5:5.67.0
 _ZN13KCalendarCore8AttendeeD2Ev@ABI_5_2 5:5.67.0
 _ZN13KCalendarCore8AttendeeaSERKS0_@ABI_5_2 5:5.67.0
 _ZN13KCalendarCore8Calendar10duplicatesERK14QSharedPointerINS_9IncidenceEE@ABI_5_2 5:5.67.0
 _ZN13KCalendarCore8Calendar10shiftTimesERK9QTimeZoneS3_@ABI_5_2 5:5.67.0
 _ZN13KCalendarCore8Calendar10sortEventsERK7QVectorI14QSharedPointerINS_5EventEEENS_14EventSortFieldENS_13SortDirectionE@ABI_5_2 5:5.67.0
 _ZN13KCalendarCore8Calendar11addNotebookERK7QStringb@ABI_5_2 5:5.67.0
 _ZN13KCalendarCore8Calendar11beginChangeERK14QSharedPointerINS_9IncidenceEE@ABI_5_2 5:5.67.0
 _ZN13KCalendarCore8Calendar11iconChangedEv@ABI_5_2 5:5.85.0
 _ZN13KCalendarCore8Calendar11nameChangedEv@ABI_5_2 5:5.85.0
 _ZN13KCalendarCore8Calendar11qt_metacallEN11QMetaObject4CallEiPPv@ABI_5_2 5:5.67.0
 _ZN13KCalendarCore8Calendar11qt_metacastEPKc@ABI_5_2 5:5.67.0
 _ZN13KCalendarCore8Calendar11setModifiedEb@ABI_5_2 5:5.67.0
 _ZN13KCalendarCore8Calendar11setNotebookERK14QSharedPointerINS_9IncidenceEERK7QString@ABI_5_2 5:5.67.0
 _ZN13KCalendarCore8Calendar11setTimeZoneERK9QTimeZone@ABI_5_2 5:5.67.0
 _ZN13KCalendarCore8Calendar12addIncidenceERK14QSharedPointerINS_9IncidenceEE@ABI_5_2 5:5.67.0
 _ZN13KCalendarCore8Calendar12ownerChangedEv@ABI_5_2 5:5.85.0
 _ZN13KCalendarCore8Calendar12setProductIdERK7QString@ABI_5_2 5:5.67.0
 _ZN13KCalendarCore8Calendar12sortJournalsERK7QVectorI14QSharedPointerINS_7JournalEEENS_16JournalSortFieldENS_13SortDirectionE@ABI_5_2 5:5.67.0
 _ZN13KCalendarCore8Calendar12virtual_hookEiPv@ABI_5_2 5:5.67.0
 _ZN13KCalendarCore8Calendar13doSetTimeZoneERK9QTimeZone@ABI_5_2 5:5.67.0
 _ZN13KCalendarCore8Calendar13filterChangedEv@ABI_5_2 5:5.67.0
 _ZN13KCalendarCore8Calendar13setAccessModeENS_10AccessModeE@ABI_5_2 5:5.85.0
 _ZN13KCalendarCore8Calendar13setTimeZoneIdERK10QByteArray@ABI_5_2 5:5.67.0
 _ZN13KCalendarCore8Calendar14deleteNotebookERK7QString@ABI_5_2 5:5.67.0
 _ZN13KCalendarCore8Calendar14endBatchAddingEv@ABI_5_2 5:5.67.0
 _ZN13KCalendarCore8Calendar14setupRelationsERK14QSharedPointerINS_9IncidenceEE@ABI_5_2 5:5.67.0
 _ZN13KCalendarCore8Calendar14updateNotebookERK7QStringb@ABI_5_2 5:5.67.0
 _ZN13KCalendarCore8Calendar15createExceptionERK14QSharedPointerINS_9IncidenceEERK9QDateTimeb@ABI_5_2 5:5.67.0
 _ZN13KCalendarCore8Calendar15deleteIncidenceERK14QSharedPointerINS_9IncidenceEE@ABI_5_2 5:5.67.0
 _ZN13KCalendarCore8Calendar15removeRelationsERK14QSharedPointerINS_9IncidenceEE@ABI_5_2 5:5.67.0
 _ZN13KCalendarCore8Calendar16CalendarObserver16calendarModifiedEbPS0_@ABI_5_2 5:5.67.0
 _ZN13KCalendarCore8Calendar16CalendarObserver22calendarIncidenceAddedERK14QSharedPointerINS_9IncidenceEE@ABI_5_2 5:5.67.0
 _ZN13KCalendarCore8Calendar16CalendarObserver24calendarIncidenceChangedERK14QSharedPointerINS_9IncidenceEE@ABI_5_2 5:5.67.0
 _ZN13KCalendarCore8Calendar16CalendarObserver24calendarIncidenceDeletedERK14QSharedPointerINS_9IncidenceEEPKS0_@ABI_5_2 5:5.67.0
 _ZN13KCalendarCore8Calendar16CalendarObserver33calendarIncidenceAboutToBeDeletedERK14QSharedPointerINS_9IncidenceEE@ABI_5_2 5:5.67.0
 _ZN13KCalendarCore8Calendar16CalendarObserver33calendarIncidenceAdditionCanceledERK14QSharedPointerINS_9IncidenceEE@ABI_5_2 5:5.67.0
 _ZN13KCalendarCore8Calendar16CalendarObserverD0Ev@ABI_5_2 5:5.67.0
 _ZN13KCalendarCore8Calendar16CalendarObserverD1Ev@ABI_5_2 5:5.67.0
 _ZN13KCalendarCore8Calendar16CalendarObserverD2Ev@ABI_5_2 5:5.67.0
 _ZN13KCalendarCore8Calendar16incidenceUpdatedERK7QStringRK9QDateTime@ABI_5_2 5:5.67.0
 _ZN13KCalendarCore8Calendar16registerObserverEPNS0_16CalendarObserverE@ABI_5_2 5:5.67.0
 _ZN13KCalendarCore8Calendar16startBatchAddingEv@ABI_5_2 5:5.67.0
 _ZN13KCalendarCore8Calendar16staticMetaObjectE@ABI_5_2 5:5.67.0
 _ZN13KCalendarCore8Calendar17accessModeChangedEv@ABI_5_2 5:5.85.0
 _ZN13KCalendarCore8Calendar18mergeIncidenceListERK7QVectorI14QSharedPointerINS_5EventEEERKS1_IS2_INS_4TodoEEERKS1_IS2_INS_7JournalEEE@ABI_5_2 5:5.67.0
 _ZN13KCalendarCore8Calendar18setDefaultNotebookERK7QString@ABI_5_2 5:5.67.0
 _ZN13KCalendarCore8Calendar18unregisterObserverEPNS0_16CalendarObserverE@ABI_5_2 5:5.67.0
 _ZN13KCalendarCore8Calendar19setDeletionTrackingEb@ABI_5_2 5:5.67.0
 _ZN13KCalendarCore8Calendar19setObserversEnabledEb@ABI_5_2 5:5.67.0
 _ZN13KCalendarCore8Calendar20notifyIncidenceAddedERK14QSharedPointerINS_9IncidenceEE@ABI_5_2 5:5.67.0
 _ZN13KCalendarCore8Calendar21customPropertyUpdatedEv@ABI_5_2 5:5.67.0
 _ZN13KCalendarCore8Calendar22notifyIncidenceChangedERK14QSharedPointerINS_9IncidenceEE@ABI_5_2 5:5.67.0
 _ZN13KCalendarCore8Calendar22notifyIncidenceDeletedERK14QSharedPointerINS_9IncidenceEE@ABI_5_2 5:5.67.0
 _ZN13KCalendarCore8Calendar25clearNotebookAssociationsEv@ABI_5_2 5:5.67.0
 _ZN13KCalendarCore8Calendar31notifyIncidenceAboutToBeDeletedERK14QSharedPointerINS_9IncidenceEE@ABI_5_2 5:5.67.0
 _ZN13KCalendarCore8Calendar31notifyIncidenceAdditionCanceledERK14QSharedPointerINS_9IncidenceEE@ABI_5_2 5:5.67.0
 _ZN13KCalendarCore8Calendar4saveEv@ABI_5_2 5:5.67.0
 _ZN13KCalendarCore8Calendar5setIdERK7QString@ABI_5_2 5:5.85.0
 _ZN13KCalendarCore8Calendar6reloadEv@ABI_5_2 5:5.67.0
 _ZN13KCalendarCore8Calendar7setIconERK5QIcon@ABI_5_2 5:5.85.0
 _ZN13KCalendarCore8Calendar7setNameERK7QString@ABI_5_2 5:5.85.0
 _ZN13KCalendarCore8Calendar8setOwnerERKNS_6PersonE@ABI_5_2 5:5.67.0
 _ZN13KCalendarCore8Calendar9endChangeERK14QSharedPointerINS_9IncidenceEE@ABI_5_2 5:5.67.0
 _ZN13KCalendarCore8Calendar9idChangedEv@ABI_5_2 5:5.85.0
 _ZN13KCalendarCore8Calendar9setFilterEPNS_9CalFilterE@ABI_5_2 5:5.67.0
 _ZN13KCalendarCore8Calendar9sortTodosERK7QVectorI14QSharedPointerINS_4TodoEEENS_13TodoSortFieldENS_13SortDirectionE@ABI_5_2 5:5.67.0
 _ZN13KCalendarCore8CalendarC1ERK10QByteArray@ABI_5_2 5:5.67.0
 _ZN13KCalendarCore8CalendarC1ERK9QTimeZone@ABI_5_2 5:5.67.0
 _ZN13KCalendarCore8CalendarC2ERK10QByteArray@ABI_5_2 5:5.67.0
 _ZN13KCalendarCore8CalendarC2ERK9QTimeZone@ABI_5_2 5:5.67.0
 _ZN13KCalendarCore8CalendarD0Ev@ABI_5_2 5:5.67.0
 _ZN13KCalendarCore8CalendarD1Ev@ABI_5_2 5:5.67.0
 _ZN13KCalendarCore8CalendarD2Ev@ABI_5_2 5:5.67.0
 _ZN13KCalendarCore8DurationC1ERK9QDateTimeS3_@ABI_5_2 5:5.67.0
 _ZN13KCalendarCore8DurationC1ERK9QDateTimeS3_NS0_4TypeE@ABI_5_2 5:5.67.0
 _ZN13KCalendarCore8DurationC1ERKS0_@ABI_5_2 5:5.67.0
 _ZN13KCalendarCore8DurationC1EiNS0_4TypeE@ABI_5_2 5:5.67.0
 _ZN13KCalendarCore8DurationC1Ev@ABI_5_2 5:5.67.0
 _ZN13KCalendarCore8DurationC2ERK9QDateTimeS3_@ABI_5_2 5:5.67.0
 _ZN13KCalendarCore8DurationC2ERK9QDateTimeS3_NS0_4TypeE@ABI_5_2 5:5.67.0
 _ZN13KCalendarCore8DurationC2ERKS0_@ABI_5_2 5:5.67.0
 _ZN13KCalendarCore8DurationC2EiNS0_4TypeE@ABI_5_2 5:5.67.0
 _ZN13KCalendarCore8DurationC2Ev@ABI_5_2 5:5.67.0
 _ZN13KCalendarCore8DurationD1Ev@ABI_5_2 5:5.67.0
 _ZN13KCalendarCore8DurationD2Ev@ABI_5_2 5:5.67.0
 _ZN13KCalendarCore8DurationaSERKS0_@ABI_5_2 5:5.67.0
 _ZN13KCalendarCore8DurationdVEi@ABI_5_2 5:5.67.0
 _ZN13KCalendarCore8DurationmIERKS0_@ABI_5_2 5:5.67.0
 _ZN13KCalendarCore8DurationmLEi@ABI_5_2 5:5.67.0
 _ZN13KCalendarCore8DurationpLERKS0_@ABI_5_2 5:5.67.0
 _ZN13KCalendarCore8FreeBusy10addPeriodsERK7QVectorINS_14FreeBusyPeriodEE@ABI_5_2 5:5.67.0
 _ZN13KCalendarCore8FreeBusy10addPeriodsERK7QVectorINS_6PeriodEE@ABI_5_2 5:5.67.0
 _ZN13KCalendarCore8FreeBusy10setDtStartERK9QDateTime@ABI_5_2 5:5.67.0
 _ZN13KCalendarCore8FreeBusy10shiftTimesERK9QTimeZoneS3_@ABI_5_2 5:5.67.0
 _ZN13KCalendarCore8FreeBusy11setDateTimeERK9QDateTimeNS_13IncidenceBase12DateTimeRoleE@ABI_5_2 5:5.67.0
 _ZN13KCalendarCore8FreeBusy12virtual_hookENS_13IncidenceBase11VirtualHookEPv@ABI_5_2 5:5.67.0
 _ZN13KCalendarCore8FreeBusy16freeBusyMimeTypeEv@ABI_5_2 5:5.67.0
 _ZN13KCalendarCore8FreeBusy5mergeERK14QSharedPointerIS0_E@ABI_5_2 5:5.67.0
 _ZN13KCalendarCore8FreeBusy6acceptERNS_7VisitorERK14QSharedPointerINS_13IncidenceBaseEE@ABI_5_2 5:5.67.0
 _ZN13KCalendarCore8FreeBusy6assignERKNS_13IncidenceBaseE@ABI_5_2 5:5.67.0
 _ZN13KCalendarCore8FreeBusy8setDtEndERK9QDateTime@ABI_5_2 5:5.67.0
 _ZN13KCalendarCore8FreeBusy8sortListEv@ABI_5_2 5:5.67.0
 _ZN13KCalendarCore8FreeBusy9addPeriodERK9QDateTimeRKNS_8DurationE@ABI_5_2 5:5.67.0
 _ZN13KCalendarCore8FreeBusy9addPeriodERK9QDateTimeS3_@ABI_5_2 5:5.67.0
 _ZN13KCalendarCore8FreeBusyC1ERK7QVectorI14QSharedPointerINS_5EventEEERK9QDateTimeSA_@ABI_5_2 5:5.67.0
 _ZN13KCalendarCore8FreeBusyC1ERK7QVectorINS_14FreeBusyPeriodEE@ABI_5_2 5:5.67.0
 _ZN13KCalendarCore8FreeBusyC1ERK7QVectorINS_6PeriodEE@ABI_5_2 5:5.67.0
 _ZN13KCalendarCore8FreeBusyC1ERK9QDateTimeS3_@ABI_5_2 5:5.67.0
 _ZN13KCalendarCore8FreeBusyC1ERKS0_@ABI_5_2 5:5.67.0
 _ZN13KCalendarCore8FreeBusyC1Ev@ABI_5_2 5:5.67.0
 _ZN13KCalendarCore8FreeBusyC2ERK7QVectorI14QSharedPointerINS_5EventEEERK9QDateTimeSA_@ABI_5_2 5:5.67.0
 _ZN13KCalendarCore8FreeBusyC2ERK7QVectorINS_14FreeBusyPeriodEE@ABI_5_2 5:5.67.0
 _ZN13KCalendarCore8FreeBusyC2ERK7QVectorINS_6PeriodEE@ABI_5_2 5:5.67.0
 _ZN13KCalendarCore8FreeBusyC2ERK9QDateTimeS3_@ABI_5_2 5:5.67.0
 _ZN13KCalendarCore8FreeBusyC2ERKS0_@ABI_5_2 5:5.67.0
 _ZN13KCalendarCore8FreeBusyC2Ev@ABI_5_2 5:5.67.0
 _ZN13KCalendarCore8FreeBusyD0Ev@ABI_5_2 5:5.67.0
 _ZN13KCalendarCore8FreeBusyD1Ev@ABI_5_2 5:5.67.0
 _ZN13KCalendarCore8FreeBusyD2Ev@ABI_5_2 5:5.67.0
 _ZN13KCalendarCore8Journals12dateLessThanERK14QSharedPointerINS_7JournalEES5_@ABI_5_2 5:5.67.0
 _ZN13KCalendarCore8Journals12dateMoreThanERK14QSharedPointerINS_7JournalEES5_@ABI_5_2 5:5.67.0
 _ZN13KCalendarCore8Journals15summaryLessThanERK14QSharedPointerINS_7JournalEES5_@ABI_5_2 5:5.67.0
 _ZN13KCalendarCore8Journals15summaryMoreThanERK14QSharedPointerINS_7JournalEES5_@ABI_5_2 5:5.67.0
 _ZN13KCalendarCore9CalFilter10setEnabledEb@ABI_5_2 5:5.67.0
 _ZN13KCalendarCore9CalFilter11setCriteriaEi@ABI_5_2 5:5.67.0
 _ZN13KCalendarCore9CalFilter12setEmailListERK11QStringList@ABI_5_2 5:5.67.0
 _ZN13KCalendarCore9CalFilter15setCategoryListERK11QStringList@ABI_5_2 5:5.67.0
 _ZN13KCalendarCore9CalFilter20setCompletedTimeSpanEi@ABI_5_2 5:5.67.0
 _ZN13KCalendarCore9CalFilter7setNameERK7QString@ABI_5_2 5:5.67.0
 _ZN13KCalendarCore9CalFilterC1ERK7QString@ABI_5_2 5:5.67.0
 _ZN13KCalendarCore9CalFilterC1Ev@ABI_5_2 5:5.67.0
 _ZN13KCalendarCore9CalFilterC2ERK7QString@ABI_5_2 5:5.67.0
 _ZN13KCalendarCore9CalFilterC2Ev@ABI_5_2 5:5.67.0
 _ZN13KCalendarCore9CalFilterD1Ev@ABI_5_2 5:5.67.0
 _ZN13KCalendarCore9CalFilterD2Ev@ABI_5_2 5:5.67.0
 _ZN13KCalendarCore9CalFormat11applicationEv@ABI_5_2 5:5.67.0
 _ZN13KCalendarCore9CalFormat12setExceptionEPNS_9ExceptionE@ABI_5_2 5:5.67.0
 _ZN13KCalendarCore9CalFormat12virtual_hookEiPv@ABI_5_2 5:5.67.0
 _ZN13KCalendarCore9CalFormat14clearExceptionEv@ABI_5_2 5:5.67.0
 _ZN13KCalendarCore9CalFormat14createUniqueIdEv@ABI_5_2 5:5.67.0
 _ZN13KCalendarCore9CalFormat14setApplicationERK7QStringS3_@ABI_5_2 5:5.67.0
 _ZN13KCalendarCore9CalFormat15loadedProductIdEv@ABI_5_2 5:5.67.0
 _ZN13KCalendarCore9CalFormat18setLoadedProductIdERK7QString@ABI_5_2 5:5.67.0
 _ZN13KCalendarCore9CalFormat9productIdEv@ABI_5_2 5:5.67.0
 _ZN13KCalendarCore9CalFormatC1Ev@ABI_5_2 5:5.67.0
 _ZN13KCalendarCore9CalFormatC2Ev@ABI_5_2 5:5.67.0
 _ZN13KCalendarCore9CalFormatD0Ev@ABI_5_2 5:5.67.0
 _ZN13KCalendarCore9CalFormatD1Ev@ABI_5_2 5:5.67.0
 _ZN13KCalendarCore9CalFormatD2Ev@ABI_5_2 5:5.67.0
 _ZN13KCalendarCore9ExceptionC1ENS0_9ErrorCodeERK11QStringList@ABI_5_2 5:5.67.0
 _ZN13KCalendarCore9ExceptionC2ENS0_9ErrorCodeERK11QStringList@ABI_5_2 5:5.67.0
 _ZN13KCalendarCore9ExceptionD0Ev@ABI_5_2 5:5.67.0
 _ZN13KCalendarCore9ExceptionD1Ev@ABI_5_2 5:5.67.0
 _ZN13KCalendarCore9ExceptionD2Ev@ABI_5_2 5:5.67.0
 _ZN13KCalendarCore9Incidence10setCreatedERK9QDateTime@ABI_5_2 5:5.67.0
 _ZN13KCalendarCore9Incidence10setDtStartERK9QDateTime@ABI_5_2 5:5.67.0
 _ZN13KCalendarCore9Incidence10setSecrecyENS0_7SecrecyE@ABI_5_2 5:5.67.0
 _ZN13KCalendarCore9Incidence10setSummaryERK7QString@ABI_5_2 5:5.67.0
 _ZN13KCalendarCore9Incidence10setSummaryERK7QStringb@ABI_5_2 5:5.67.0
 _ZN13KCalendarCore9Incidence10shiftTimesERK9QTimeZoneS3_@ABI_5_2 5:5.67.0
 _ZN13KCalendarCore9Incidence11clearAlarmsEv@ABI_5_2 5:5.67.0
 _ZN13KCalendarCore9Incidence11deserializeER11QDataStream@ABI_5_2 5:5.67.0
 _ZN13KCalendarCore9Incidence11removeAlarmERK14QSharedPointerINS_5AlarmEE@ABI_5_2 5:5.67.0
 _ZN13KCalendarCore9Incidence11setLocationERK7QString@ABI_5_2 5:5.67.0
 _ZN13KCalendarCore9Incidence11setLocationERK7QStringb@ABI_5_2 5:5.67.0
 _ZN13KCalendarCore9Incidence11setPriorityEi@ABI_5_2 5:5.67.0
 _ZN13KCalendarCore9Incidence11setReadOnlyEb@ABI_5_2 5:5.67.0
 _ZN13KCalendarCore9Incidence11setRevisionEi@ABI_5_2 5:5.67.0
 _ZN13KCalendarCore9Incidence12setLocalOnlyEb@ABI_5_2 5:5.67.0
 _ZN13KCalendarCore9Incidence12setRelatedToERK7QStringNS0_7RelTypeE@ABI_5_2 5:5.67.0
 _ZN13KCalendarCore9Incidence12setResourcesERK11QStringList@ABI_5_2 5:5.67.0
 _ZN13KCalendarCore9Incidence13addAttachmentERKNS_10AttachmentE@ABI_5_2 5:5.67.0
 _ZN13KCalendarCore9Incidence13addConferenceERKNS_10ConferenceE@ABI_5_2 5:5.77.0
 _ZN13KCalendarCore9Incidence13setCategoriesERK11QStringList@ABI_5_2 5:5.67.0
 _ZN13KCalendarCore9Incidence13setCategoriesERK7QString@ABI_5_2 5:5.67.0
 _ZN13KCalendarCore9Incidence14setConferencesERK7QVectorINS_10ConferenceEE@ABI_5_2 5:5.77.0
 _ZN13KCalendarCore9Incidence14setDescriptionERK7QString@ABI_5_2 5:5.67.0
 _ZN13KCalendarCore9Incidence14setDescriptionERK7QStringb@ABI_5_2 5:5.67.0
 _ZN13KCalendarCore9Incidence14setGeoLatitudeEf@ABI_5_2 5:5.67.0
 _ZN13KCalendarCore9Incidence15clearRecurrenceEv@ABI_5_2 5:5.67.0
 _ZN13KCalendarCore9Incidence15setCustomStatusERK7QString@ABI_5_2 5:5.67.0
 _ZN13KCalendarCore9Incidence15setGeoLongitudeEf@ABI_5_2 5:5.67.0
 _ZN13KCalendarCore9Incidence15setLastModifiedERK9QDateTime@ABI_5_2 5:5.67.0
 _ZN13KCalendarCore9Incidence15setRecurrenceIdERK9QDateTime@ABI_5_2 5:5.67.0
 _ZN13KCalendarCore9Incidence15setSchedulingIDERK7QStringS3_@ABI_5_2 5:5.67.0
 _ZN13KCalendarCore9Incidence16clearAttachmentsEv@ABI_5_2 5:5.67.0
 _ZN13KCalendarCore9Incidence16clearConferencesEv@ABI_5_2 5:5.77.0
 _ZN13KCalendarCore9Incidence16setThisAndFutureEb@ABI_5_2 5:5.67.0
 _ZN13KCalendarCore9Incidence16staticMetaObjectE@ABI_5_2 5:5.67.0
 _ZN13KCalendarCore9Incidence17deleteAttachmentsERK7QString@ABI_5_2 5:5.67.0
 _ZN13KCalendarCore9Incidence17recurrenceUpdatedEPNS_10RecurrenceE@ABI_5_2 5:5.67.0
 _ZN13KCalendarCore9Incidence17setAltDescriptionERK7QString@ABI_5_2 5:5.67.0
 _ZN13KCalendarCore9Incidence6assignERKNS_13IncidenceBaseE@ABI_5_2 5:5.67.0
 _ZN13KCalendarCore9Incidence8addAlarmERK14QSharedPointerINS_5AlarmEE@ABI_5_2 5:5.67.0
 _ZN13KCalendarCore9Incidence8newAlarmEv@ABI_5_2 5:5.67.0
 _ZN13KCalendarCore9Incidence8recreateEv@ABI_5_2 5:5.67.0
 _ZN13KCalendarCore9Incidence8setColorERK7QString@ABI_5_2 5:5.77.0
 _ZN13KCalendarCore9Incidence9mimeTypesEv@ABI_5_2 5:5.67.0
 _ZN13KCalendarCore9Incidence9setAllDayEb@ABI_5_2 5:5.67.0
 _ZN13KCalendarCore9Incidence9setHasGeoEb@ABI_5_2 5:5.67.0
 _ZN13KCalendarCore9Incidence9setStatusENS0_6StatusE@ABI_5_2 5:5.67.0
 _ZN13KCalendarCore9IncidenceC1ERKS0_@ABI_5_2 5:5.67.0
 _ZN13KCalendarCore9IncidenceC1Ev@ABI_5_2 5:5.67.0
 _ZN13KCalendarCore9IncidenceC2ERKS0_@ABI_5_2 5:5.67.0
 _ZN13KCalendarCore9IncidenceC2Ev@ABI_5_2 5:5.67.0
 _ZN13KCalendarCore9IncidenceD0Ev@ABI_5_2 5:5.67.0
 _ZN13KCalendarCore9IncidenceD1Ev@ABI_5_2 5:5.67.0
 _ZN13KCalendarCore9IncidenceD2Ev@ABI_5_2 5:5.67.0
 _ZN13KCalendarCorelsER11QDataStreamPKNS_14RecurrenceRuleE@ABI_5_2 5:5.67.0
 _ZN13KCalendarCorelsER11QDataStreamPNS_10RecurrenceE@ABI_5_2 5:5.67.0
 _ZN13KCalendarCorelsER11QDataStreamRK14QSharedPointerINS_13IncidenceBaseEE@ABI_5_2 5:5.67.0
 _ZN13KCalendarCorelsER11QDataStreamRK14QSharedPointerINS_5AlarmEE@ABI_5_2 5:5.67.0
 _ZN13KCalendarCorelsER11QDataStreamRK14QSharedPointerINS_8FreeBusyEE@ABI_5_2 5:5.67.0
 _ZN13KCalendarCorelsER11QDataStreamRKNS_10AttachmentE@ABI_5_2 5:5.67.0
 _ZN13KCalendarCorelsER11QDataStreamRKNS_10ConferenceE@ABI_5_2 5:5.77.0
 _ZN13KCalendarCorelsER11QDataStreamRKNS_14FreeBusyPeriodE@ABI_5_2 5:5.67.0
 _ZN13KCalendarCorelsER11QDataStreamRKNS_14RecurrenceRule7WDayPosE@ABI_5_2 5:5.67.0
 _ZN13KCalendarCorelsER11QDataStreamRKNS_16CustomPropertiesE@ABI_5_2 5:5.67.0
 _ZN13KCalendarCorelsER11QDataStreamRKNS_6PeriodE@ABI_5_2 5:5.67.0
 _ZN13KCalendarCorelsER11QDataStreamRKNS_6PersonE@ABI_5_2 5:5.67.0
 _ZN13KCalendarCorelsER11QDataStreamRKNS_8AttendeeE@ABI_5_2 5:5.67.0
 _ZN13KCalendarCorelsER11QDataStreamRKNS_8DurationE@ABI_5_2 5:5.67.0
 _ZN13KCalendarCorersER11QDataStreamPKNS_14RecurrenceRuleE@ABI_5_2 5:5.67.0
 _ZN13KCalendarCorersER11QDataStreamPNS_10RecurrenceE@ABI_5_2 5:5.67.0
 _ZN13KCalendarCorersER11QDataStreamR14QSharedPointerINS_13IncidenceBaseEE@ABI_5_2 5:5.67.0
 _ZN13KCalendarCorersER11QDataStreamR14QSharedPointerINS_8FreeBusyEE@ABI_5_2 5:5.67.0
 _ZN13KCalendarCorersER11QDataStreamRK14QSharedPointerINS_5AlarmEE@ABI_5_2 5:5.67.0
 _ZN13KCalendarCorersER11QDataStreamRNS_10AttachmentE@ABI_5_2 5:5.67.0
 _ZN13KCalendarCorersER11QDataStreamRNS_10ConferenceE@ABI_5_2 5:5.77.0
 _ZN13KCalendarCorersER11QDataStreamRNS_14FreeBusyPeriodE@ABI_5_2 5:5.67.0
 _ZN13KCalendarCorersER11QDataStreamRNS_14RecurrenceRule7WDayPosE@ABI_5_2 5:5.67.0
 _ZN13KCalendarCorersER11QDataStreamRNS_16CustomPropertiesE@ABI_5_2 5:5.67.0
 _ZN13KCalendarCorersER11QDataStreamRNS_6PeriodE@ABI_5_2 5:5.67.0
 _ZN13KCalendarCorersER11QDataStreamRNS_6PersonE@ABI_5_2 5:5.67.0
 _ZN13KCalendarCorersER11QDataStreamRNS_8AttendeeE@ABI_5_2 5:5.67.0
 _ZN13KCalendarCorersER11QDataStreamRNS_8DurationE@ABI_5_2 5:5.67.0
 _ZNK13KCalendarCore10Attachment10showInlineEv@ABI_5_2 5:5.67.0
 _ZNK13KCalendarCore10Attachment11decodedDataEv@ABI_5_2 5:5.67.0
 _ZNK13KCalendarCore10Attachment3uriEv@ABI_5_2 5:5.67.0
 _ZNK13KCalendarCore10Attachment4dataEv@ABI_5_2 5:5.67.0
 _ZNK13KCalendarCore10Attachment4sizeEv@ABI_5_2 5:5.67.0
 _ZNK13KCalendarCore10Attachment5isUriEv@ABI_5_2 5:5.67.0
 _ZNK13KCalendarCore10Attachment5labelEv@ABI_5_2 5:5.67.0
 _ZNK13KCalendarCore10Attachment7isEmptyEv@ABI_5_2 5:5.67.0
 _ZNK13KCalendarCore10Attachment7isLocalEv@ABI_5_2 5:5.67.0
 _ZNK13KCalendarCore10Attachment8isBinaryEv@ABI_5_2 5:5.67.0
 _ZNK13KCalendarCore10Attachment8mimeTypeEv@ABI_5_2 5:5.67.0
 _ZNK13KCalendarCore10AttachmenteqERKS0_@ABI_5_2 5:5.67.0
 _ZNK13KCalendarCore10AttachmentneERKS0_@ABI_5_2 5:5.67.0
 _ZNK13KCalendarCore10CalStorage10metaObjectEv@ABI_5_2 5:5.67.0
 _ZNK13KCalendarCore10CalStorage8calendarEv@ABI_5_2 5:5.67.0
 _ZNK13KCalendarCore10Conference16customPropertiesEv@ABI_5_2 5:5.77.0
 _ZNK13KCalendarCore10Conference3uriEv@ABI_5_2 5:5.77.0
 _ZNK13KCalendarCore10Conference5labelEv@ABI_5_2 5:5.77.0
 _ZNK13KCalendarCore10Conference6isNullEv@ABI_5_2 5:5.77.0
 _ZNK13KCalendarCore10Conference8featuresEv@ABI_5_2 5:5.77.0
 _ZNK13KCalendarCore10Conference8languageEv@ABI_5_2 5:5.77.0
 _ZNK13KCalendarCore10ConferenceeqERKS0_@ABI_5_2 5:5.77.0
 _ZNK13KCalendarCore10ConferenceneERKS0_@ABI_5_2 5:5.77.0
 _ZNK13KCalendarCore10ICalFormat10timeZoneIdEv@ABI_5_2 5:5.67.0
 _ZNK13KCalendarCore10ICalFormat8timeZoneEv@ABI_5_2 5:5.67.0
 _ZNK13KCalendarCore10Recurrence10durationToERK5QDate@ABI_5_2 5:5.67.0
 _ZNK13KCalendarCore10Recurrence10durationToERK9QDateTime@ABI_5_2 5:5.67.0
 _ZNK13KCalendarCore10Recurrence10rDateTimesEv@ABI_5_2 5:5.67.0
 _ZNK13KCalendarCore10Recurrence10yearMonthsEv@ABI_5_2 5:5.67.0
 _ZNK13KCalendarCore10Recurrence11endDateTimeEv@ABI_5_2 5:5.67.0
 _ZNK13KCalendarCore10Recurrence11exDateTimesEv@ABI_5_2 5:5.67.0
 _ZNK13KCalendarCore10Recurrence12defaultRRuleEb@ABI_5_2 5:5.67.0
 _ZNK13KCalendarCore10Recurrence12recurTimesOnERK5QDateRK9QTimeZone@ABI_5_2 5:5.67.0
 _ZNK13KCalendarCore10Recurrence13recurReadOnlyEv@ABI_5_2 5:5.67.0
 _ZNK13KCalendarCore10Recurrence13startDateTimeEv@ABI_5_2 5:5.67.0
 _ZNK13KCalendarCore10Recurrence13yearPositionsEv@ABI_5_2 5:5.67.0
 _ZNK13KCalendarCore10Recurrence14monthPositionsEv@ABI_5_2 5:5.67.0
 _ZNK13KCalendarCore10Recurrence14recurrenceTypeEv@ABI_5_2 5:5.67.0
 _ZNK13KCalendarCore10Recurrence15getNextDateTimeERK9QDateTime@ABI_5_2 5:5.67.0
 _ZNK13KCalendarCore10Recurrence15rDateTimePeriodERK9QDateTime@ABI_5_2 5:5.90.0
 _ZNK13KCalendarCore10Recurrence15timesInIntervalERK9QDateTimeS3_@ABI_5_2 5:5.67.0
 _ZNK13KCalendarCore10Recurrence17defaultRRuleConstEv@ABI_5_2 5:5.67.0
 _ZNK13KCalendarCore10Recurrence19getPreviousDateTimeERK9QDateTime@ABI_5_2 5:5.67.0
 _ZNK13KCalendarCore10Recurrence4daysEv@ABI_5_2 5:5.67.0
 _ZNK13KCalendarCore10Recurrence4dumpEv@ABI_5_2 5:5.67.0
 _ZNK13KCalendarCore10Recurrence6allDayEv@ABI_5_2 5:5.67.0
 _ZNK13KCalendarCore10Recurrence6rDatesEv@ABI_5_2 5:5.67.0
 _ZNK13KCalendarCore10Recurrence6rRulesEv@ABI_5_2 5:5.67.0
 _ZNK13KCalendarCore10Recurrence6recursEv@ABI_5_2 5:5.67.0
 _ZNK13KCalendarCore10Recurrence7endDateEv@ABI_5_2 5:5.67.0
 _ZNK13KCalendarCore10Recurrence7exDatesEv@ABI_5_2 5:5.67.0
 _ZNK13KCalendarCore10Recurrence7exRulesEv@ABI_5_2 5:5.67.0
 _ZNK13KCalendarCore10Recurrence8durationEv@ABI_5_2 5:5.67.0
 _ZNK13KCalendarCore10Recurrence8recursAtERK9QDateTime@ABI_5_2 5:5.67.0
 _ZNK13KCalendarCore10Recurrence8recursOnERK5QDateRK9QTimeZone@ABI_5_2 5:5.67.0
 _ZNK13KCalendarCore10Recurrence8yearDaysEv@ABI_5_2 5:5.67.0
 _ZNK13KCalendarCore10Recurrence9frequencyEv@ABI_5_2 5:5.67.0
 _ZNK13KCalendarCore10Recurrence9monthDaysEv@ABI_5_2 5:5.67.0
 _ZNK13KCalendarCore10Recurrence9startDateEv@ABI_5_2 5:5.67.0
 _ZNK13KCalendarCore10Recurrence9weekStartEv@ABI_5_2 5:5.67.0
 _ZNK13KCalendarCore10Recurrence9yearDatesEv@ABI_5_2 5:5.67.0
 _ZNK13KCalendarCore10RecurrenceeqERKS0_@ABI_5_2 5:5.67.0
 _ZNK13KCalendarCore10VCalFormat10readStatusEPKc@ABI_5_2 5:5.67.0
 _ZNK13KCalendarCore10VCalFormat11writeStatusENS_8Attendee8PartStatE@ABI_5_2 5:5.67.0
 _ZNK13KCalendarCore10VCalFormat7parseTZERK10QByteArray@ABI_5_2 5:5.67.0
 _ZNK13KCalendarCore10VCalFormat8parseDstER10QByteArray@ABI_5_2 5:5.67.0
 _ZNK13KCalendarCore11FileStorage10metaObjectEv@ABI_5_2 5:5.67.0
 _ZNK13KCalendarCore11FileStorage10saveFormatEv@ABI_5_2 5:5.67.0
 _ZNK13KCalendarCore11FileStorage8fileNameEv@ABI_5_2 5:5.67.0
 _ZNK13KCalendarCore13IncidenceBase10isReadOnlyEv@ABI_5_2 5:5.67.0
 _ZNK13KCalendarCore13IncidenceBase11dirtyFieldsEv@ABI_5_2 5:5.67.0
 _ZNK13KCalendarCore13IncidenceBase11hasDurationEv@ABI_5_2 5:5.67.0
 _ZNK13KCalendarCore13IncidenceBase12lastModifiedEv@ABI_5_2 5:5.67.0
 _ZNK13KCalendarCore13IncidenceBase12recurrenceIdEv@ABI_5_2 5:5.67.0
 _ZNK13KCalendarCore13IncidenceBase13attendeeByUidERK7QString@ABI_5_2 5:5.67.0
 _ZNK13KCalendarCore13IncidenceBase13attendeeCountEv@ABI_5_2 5:5.67.0
 _ZNK13KCalendarCore13IncidenceBase14attendeeByMailERK7QString@ABI_5_2 5:5.67.0
 _ZNK13KCalendarCore13IncidenceBase15attendeeByMailsERK11QStringListRK7QString@ABI_5_2 5:5.67.0
 _ZNK13KCalendarCore13IncidenceBase3uidEv@ABI_5_2 5:5.67.0
 _ZNK13KCalendarCore13IncidenceBase3uriEv@ABI_5_2 5:5.67.0
 _ZNK13KCalendarCore13IncidenceBase3urlEv@ABI_5_2 5:5.67.0
 _ZNK13KCalendarCore13IncidenceBase6allDayEv@ABI_5_2 5:5.67.0
 _ZNK13KCalendarCore13IncidenceBase6equalsERKS0_@ABI_5_2 5:5.67.0
 _ZNK13KCalendarCore13IncidenceBase7dtStartEv@ABI_5_2 5:5.67.0
 _ZNK13KCalendarCore13IncidenceBase8commentsEv@ABI_5_2 5:5.67.0
 _ZNK13KCalendarCore13IncidenceBase8contactsEv@ABI_5_2 5:5.67.0
 _ZNK13KCalendarCore13IncidenceBase8durationEv@ABI_5_2 5:5.67.0
 _ZNK13KCalendarCore13IncidenceBase9attendeesEv@ABI_5_2 5:5.67.0
 _ZNK13KCalendarCore13IncidenceBase9organizerEv@ABI_5_2 5:5.67.0
 _ZNK13KCalendarCore13IncidenceBase9serializeER11QDataStream@ABI_5_2 5:5.67.0
 _ZNK13KCalendarCore13IncidenceBaseeqERKS0_@ABI_5_2 5:5.67.0
 _ZNK13KCalendarCore13IncidenceBaseneERKS0_@ABI_5_2 5:5.67.0
 _ZNK13KCalendarCore14CalendarPlugin10metaObjectEv@ABI_5_2 5:5.85.0
 _ZNK13KCalendarCore14FreeBusyPeriod4typeEv@ABI_5_2 5:5.67.0
 _ZNK13KCalendarCore14FreeBusyPeriod7summaryEv@ABI_5_2 5:5.67.0
 _ZNK13KCalendarCore14FreeBusyPeriod8locationEv@ABI_5_2 5:5.67.0
 _ZNK13KCalendarCore14MemoryCalendar10metaObjectEv@ABI_5_2 5:5.67.0
 _ZNK13KCalendarCore14MemoryCalendar11deletedTodoERK7QStringRK9QDateTime@ABI_5_2 5:5.67.0
 _ZNK13KCalendarCore14MemoryCalendar11rawJournalsENS_16JournalSortFieldENS_13SortDirectionE@ABI_5_2 5:5.67.0
 _ZNK13KCalendarCore14MemoryCalendar12deletedEventERK7QStringRK9QDateTime@ABI_5_2 5:5.67.0
 _ZNK13KCalendarCore14MemoryCalendar12deletedTodosENS_13TodoSortFieldENS_13SortDirectionE@ABI_5_2 5:5.67.0
 _ZNK13KCalendarCore14MemoryCalendar13deletedEventsENS_14EventSortFieldENS_13SortDirectionE@ABI_5_2 5:5.67.0
 _ZNK13KCalendarCore14MemoryCalendar13todoInstancesERK14QSharedPointerINS_9IncidenceEENS_13TodoSortFieldENS_13SortDirectionE@ABI_5_2 5:5.67.0
 _ZNK13KCalendarCore14MemoryCalendar14deletedJournalERK7QStringRK9QDateTime@ABI_5_2 5:5.67.0
 _ZNK13KCalendarCore14MemoryCalendar14eventInstancesERK14QSharedPointerINS_9IncidenceEENS_14EventSortFieldENS_13SortDirectionE@ABI_5_2 5:5.67.0
 _ZNK13KCalendarCore14MemoryCalendar15deletedJournalsENS_16JournalSortFieldENS_13SortDirectionE@ABI_5_2 5:5.67.0
 _ZNK13KCalendarCore14MemoryCalendar15rawTodosForDateERK5QDate@ABI_5_2 5:5.67.0
 _ZNK13KCalendarCore14MemoryCalendar16journalInstancesERK14QSharedPointerINS_9IncidenceEENS_16JournalSortFieldENS_13SortDirectionE@ABI_5_2 5:5.67.0
 _ZNK13KCalendarCore14MemoryCalendar16rawEventsForDateERK5QDateRK9QTimeZoneNS_14EventSortFieldENS_13SortDirectionE@ABI_5_2 5:5.67.0
 _ZNK13KCalendarCore14MemoryCalendar16rawEventsForDateERK9QDateTime@ABI_5_2 5:5.67.0
 _ZNK13KCalendarCore14MemoryCalendar18rawJournalsForDateERK5QDate@ABI_5_2 5:5.67.0
 _ZNK13KCalendarCore14MemoryCalendar26updateLastModifiedOnChangeEv@ABI_5_2 5:5.80.0
 _ZNK13KCalendarCore14MemoryCalendar4todoERK7QStringRK9QDateTime@ABI_5_2 5:5.67.0
 _ZNK13KCalendarCore14MemoryCalendar5eventERK7QStringRK9QDateTime@ABI_5_2 5:5.67.0
 _ZNK13KCalendarCore14MemoryCalendar6alarmsERK9QDateTimeS3_b@ABI_5_2 5:5.67.0
 _ZNK13KCalendarCore14MemoryCalendar7journalERK7QStringRK9QDateTime@ABI_5_2 5:5.67.0
 _ZNK13KCalendarCore14MemoryCalendar8alarmsToERK9QDateTime@ABI_5_2 5:5.67.0
 _ZNK13KCalendarCore14MemoryCalendar8instanceERK7QString@ABI_5_2 5:5.67.0
 _ZNK13KCalendarCore14MemoryCalendar8rawTodosENS_13TodoSortFieldENS_13SortDirectionE@ABI_5_2 5:5.67.0
 _ZNK13KCalendarCore14MemoryCalendar8rawTodosERK5QDateS3_RK9QTimeZoneb@ABI_5_2 5:5.67.0
 _ZNK13KCalendarCore14MemoryCalendar9rawEventsENS_14EventSortFieldENS_13SortDirectionE@ABI_5_2 5:5.67.0
 _ZNK13KCalendarCore14MemoryCalendar9rawEventsERK5QDateS3_RK9QTimeZoneb@ABI_5_2 5:5.67.0
 _ZNK13KCalendarCore14RecurrenceRule10byYearDaysEv@ABI_5_2 5:5.67.0
 _ZNK13KCalendarCore14RecurrenceRule10durationToERK5QDate@ABI_5_2 5:5.67.0
 _ZNK13KCalendarCore14RecurrenceRule10durationToERK9QDateTime@ABI_5_2 5:5.67.0
 _ZNK13KCalendarCore14RecurrenceRule10isReadOnlyEv@ABI_5_2 5:5.67.0
 _ZNK13KCalendarCore14RecurrenceRule11byMonthDaysEv@ABI_5_2 5:5.67.0
 _ZNK13KCalendarCore14RecurrenceRule11getNextDateERK9QDateTime@ABI_5_2 5:5.67.0
 _ZNK13KCalendarCore14RecurrenceRule12recurTimesOnERK5QDateRK9QTimeZone@ABI_5_2 5:5.67.0
 _ZNK13KCalendarCore14RecurrenceRule13byWeekNumbersEv@ABI_5_2 5:5.67.0
 _ZNK13KCalendarCore14RecurrenceRule14recurrenceTypeEv@ABI_5_2 5:5.67.0
 _ZNK13KCalendarCore14RecurrenceRule15getPreviousDateERK9QDateTime@ABI_5_2 5:5.67.0
 _ZNK13KCalendarCore14RecurrenceRule15timesInIntervalERK9QDateTimeS3_@ABI_5_2 5:5.67.0
 _ZNK13KCalendarCore14RecurrenceRule16dateMatchesRulesERK9QDateTime@ABI_5_2 5:5.67.0
 _ZNK13KCalendarCore14RecurrenceRule4dumpEv@ABI_5_2 5:5.67.0
 _ZNK13KCalendarCore14RecurrenceRule5endDtEPb@ABI_5_2 5:5.67.0
 _ZNK13KCalendarCore14RecurrenceRule5rruleEv@ABI_5_2 5:5.67.0
 _ZNK13KCalendarCore14RecurrenceRule6allDayEv@ABI_5_2 5:5.67.0
 _ZNK13KCalendarCore14RecurrenceRule6byDaysEv@ABI_5_2 5:5.67.0
 _ZNK13KCalendarCore14RecurrenceRule6recursEv@ABI_5_2 5:5.67.0
 _ZNK13KCalendarCore14RecurrenceRule7WDayPos3dayEv@ABI_5_2 5:5.67.0
 _ZNK13KCalendarCore14RecurrenceRule7WDayPos3posEv@ABI_5_2 5:5.67.0
 _ZNK13KCalendarCore14RecurrenceRule7WDayPoseqERKS1_@ABI_5_2 5:5.67.0
 _ZNK13KCalendarCore14RecurrenceRule7WDayPosneERKS1_@ABI_5_2 5:5.67.0
 _ZNK13KCalendarCore14RecurrenceRule7byHoursEv@ABI_5_2 5:5.67.0
 _ZNK13KCalendarCore14RecurrenceRule7startDtEv@ABI_5_2 5:5.67.0
 _ZNK13KCalendarCore14RecurrenceRule8byMonthsEv@ABI_5_2 5:5.67.0
 _ZNK13KCalendarCore14RecurrenceRule8bySetPosEv@ABI_5_2 5:5.67.0
 _ZNK13KCalendarCore14RecurrenceRule8durationEv@ABI_5_2 5:5.67.0
 _ZNK13KCalendarCore14RecurrenceRule8recursAtERK9QDateTime@ABI_5_2 5:5.67.0
 _ZNK13KCalendarCore14RecurrenceRule8recursOnERK5QDateRK9QTimeZone@ABI_5_2 5:5.67.0
 _ZNK13KCalendarCore14RecurrenceRule9byMinutesEv@ABI_5_2 5:5.67.0
 _ZNK13KCalendarCore14RecurrenceRule9bySecondsEv@ABI_5_2 5:5.67.0
 _ZNK13KCalendarCore14RecurrenceRule9frequencyEv@ABI_5_2 5:5.67.0
 _ZNK13KCalendarCore14RecurrenceRule9weekStartEv@ABI_5_2 5:5.67.0
 _ZNK13KCalendarCore14RecurrenceRuleeqERKS0_@ABI_5_2 5:5.67.0
 _ZNK13KCalendarCore15ScheduleMessage5errorEv@ABI_5_2 5:5.67.0
 _ZNK13KCalendarCore15ScheduleMessage5eventEv@ABI_5_2 5:5.67.0
 _ZNK13KCalendarCore15ScheduleMessage6methodEv@ABI_5_2 5:5.67.0
 _ZNK13KCalendarCore15ScheduleMessage6statusEv@ABI_5_2 5:5.67.0
 _ZNK13KCalendarCore16CustomProperties14customPropertyERK10QByteArrayS3_@ABI_5_2 5:5.67.0
 _ZNK13KCalendarCore16CustomProperties16customPropertiesEv@ABI_5_2 5:5.67.0
 _ZNK13KCalendarCore16CustomProperties20nonKDECustomPropertyERK10QByteArray@ABI_5_2 5:5.67.0
 _ZNK13KCalendarCore16CustomProperties30nonKDECustomPropertyParametersERK10QByteArray@ABI_5_2 5:5.67.0
 _ZNK13KCalendarCore16CustomPropertieseqERKS0_@ABI_5_2 5:5.67.0
 _ZNK13KCalendarCore17ICalTimeZoneCache9tzForTimeERK9QDateTimeRK10QByteArray@ABI_5_2 5:5.67.0
 _ZNK13KCalendarCore18OccurrenceIterator12recurrenceIdEv@ABI_5_2 5:5.67.0
 _ZNK13KCalendarCore18OccurrenceIterator17occurrenceEndDateEv@ABI_5_2 5:5.90.0
 _ZNK13KCalendarCore18OccurrenceIterator19occurrenceStartDateEv@ABI_5_2 5:5.67.0
 _ZNK13KCalendarCore18OccurrenceIterator7hasNextEv@ABI_5_2 5:5.67.0
 _ZNK13KCalendarCore18OccurrenceIterator9incidenceEv@ABI_5_2 5:5.67.0
 _ZNK13KCalendarCore4Todo10hasDueDateEv@ABI_5_2 5:5.67.0
 _ZNK13KCalendarCore4Todo11isCompletedEv@ABI_5_2 5:5.67.0
 _ZNK13KCalendarCore4Todo11isOpenEndedEv@ABI_5_2 5:5.67.0
 _ZNK13KCalendarCore4Todo12dtRecurrenceEv@ABI_5_2 5:5.67.0
 _ZNK13KCalendarCore4Todo12hasStartDateEv@ABI_5_2 5:5.67.0
 _ZNK13KCalendarCore4Todo12isInProgressEb@ABI_5_2 5:5.67.0
 _ZNK13KCalendarCore4Todo12isNotStartedEb@ABI_5_2 5:5.67.0
 _ZNK13KCalendarCore4Todo15percentCompleteEv@ABI_5_2 5:5.67.0
 _ZNK13KCalendarCore4Todo16hasCompletedDateEv@ABI_5_2 5:5.67.0
 _ZNK13KCalendarCore4Todo30supportsGroupwareCommunicationEv@ABI_5_2 5:5.67.0
 _ZNK13KCalendarCore4Todo4typeEv@ABI_5_2 5:5.67.0
 _ZNK13KCalendarCore4Todo5cloneEv@ABI_5_2 5:5.67.0
 _ZNK13KCalendarCore4Todo5dtDueEb@ABI_5_2 5:5.67.0
 _ZNK13KCalendarCore4Todo6equalsERKNS_13IncidenceBaseE@ABI_5_2 5:5.67.0
 _ZNK13KCalendarCore4Todo7dtStartEb@ABI_5_2 5:5.67.0
 _ZNK13KCalendarCore4Todo7dtStartEv@ABI_5_2 5:5.67.0
 _ZNK13KCalendarCore4Todo7typeStrEv@ABI_5_2 5:5.67.0
 _ZNK13KCalendarCore4Todo8dateTimeENS_13IncidenceBase12DateTimeRoleE@ABI_5_2 5:5.67.0
 _ZNK13KCalendarCore4Todo8iconNameERK9QDateTime@ABI_5_2 5:5.67.0
 _ZNK13KCalendarCore4Todo8mimeTypeEv@ABI_5_2 5:5.67.0
 _ZNK13KCalendarCore4Todo8recursOnERK5QDateRK9QTimeZone@ABI_5_2 5:5.67.0
 _ZNK13KCalendarCore4Todo9completedEv@ABI_5_2 5:5.67.0
 _ZNK13KCalendarCore4Todo9isOverdueEv@ABI_5_2 5:5.67.0
 _ZNK13KCalendarCore4Todo9serializeER11QDataStream@ABI_5_2 5:5.67.0
 _ZNK13KCalendarCore5Alarm10snoozeTimeEv@ABI_5_2 5:5.67.0
 _ZNK13KCalendarCore5Alarm11mailSubjectEv@ABI_5_2 5:5.67.0
 _ZNK13KCalendarCore5Alarm11programFileEv@ABI_5_2 5:5.67.0
 _ZNK13KCalendarCore5Alarm11repeatCountEv@ABI_5_2 5:5.67.0
 _ZNK13KCalendarCore5Alarm11startOffsetEv@ABI_5_2 5:5.67.0
 _ZNK13KCalendarCore5Alarm12hasEndOffsetEv@ABI_5_2 5:5.67.0
 _ZNK13KCalendarCore5Alarm13mailAddressesEv@ABI_5_2 5:5.67.0
 _ZNK13KCalendarCore5Alarm14hasStartOffsetEv@ABI_5_2 5:5.67.0
 _ZNK13KCalendarCore5Alarm14locationRadiusEv@ABI_5_2 5:5.67.0
 _ZNK13KCalendarCore5Alarm14nextRepetitionERK9QDateTime@ABI_5_2 5:5.67.0
 _ZNK13KCalendarCore5Alarm15mailAttachmentsEv@ABI_5_2 5:5.67.0
 _ZNK13KCalendarCore5Alarm16programArgumentsEv@ABI_5_2 5:5.67.0
 _ZNK13KCalendarCore5Alarm17hasLocationRadiusEv@ABI_5_2 5:5.67.0
 _ZNK13KCalendarCore5Alarm18previousRepetitionERK9QDateTime@ABI_5_2 5:5.67.0
 _ZNK13KCalendarCore5Alarm4textEv@ABI_5_2 5:5.67.0
 _ZNK13KCalendarCore5Alarm4timeEv@ABI_5_2 5:5.67.0
 _ZNK13KCalendarCore5Alarm4typeEv@ABI_5_2 5:5.67.0
 _ZNK13KCalendarCore5Alarm7enabledEv@ABI_5_2 5:5.67.0
 _ZNK13KCalendarCore5Alarm7endTimeEv@ABI_5_2 5:5.67.0
 _ZNK13KCalendarCore5Alarm7hasTimeEv@ABI_5_2 5:5.67.0
 _ZNK13KCalendarCore5Alarm8durationEv@ABI_5_2 5:5.67.0
 _ZNK13KCalendarCore5Alarm8mailTextEv@ABI_5_2 5:5.67.0
 _ZNK13KCalendarCore5Alarm8nextTimeERK9QDateTimeb@ABI_5_2 5:5.67.0
 _ZNK13KCalendarCore5Alarm9audioFileEv@ABI_5_2 5:5.67.0
 _ZNK13KCalendarCore5Alarm9endOffsetEv@ABI_5_2 5:5.67.0
 _ZNK13KCalendarCore5Alarm9parentUidEv@ABI_5_2 5:5.67.0
 _ZNK13KCalendarCore5AlarmeqERKS0_@ABI_5_2 5:5.67.0
 _ZNK13KCalendarCore5AlarmneERKS0_@ABI_5_2 5:5.67.0
 _ZNK13KCalendarCore5Event10hasEndDateEv@ABI_5_2 5:5.67.0
 _ZNK13KCalendarCore5Event10isMultiDayERK9QTimeZone@ABI_5_2 5:5.67.0
 _ZNK13KCalendarCore5Event12transparencyEv@ABI_5_2 5:5.67.0
 _ZNK13KCalendarCore5Event30supportsGroupwareCommunicationEv@ABI_5_2 5:5.67.0
 _ZNK13KCalendarCore5Event4typeEv@ABI_5_2 5:5.67.0
 _ZNK13KCalendarCore5Event5cloneEv@ABI_5_2 5:5.67.0
 _ZNK13KCalendarCore5Event5dtEndEv@ABI_5_2 5:5.67.0
 _ZNK13KCalendarCore5Event6equalsERKNS_13IncidenceBaseE@ABI_5_2 5:5.67.0
 _ZNK13KCalendarCore5Event7dateEndEv@ABI_5_2 5:5.67.0
 _ZNK13KCalendarCore5Event7typeStrEv@ABI_5_2 5:5.67.0
 _ZNK13KCalendarCore5Event8dateTimeENS_13IncidenceBase12DateTimeRoleE@ABI_5_2 5:5.67.0
 _ZNK13KCalendarCore5Event8iconNameERK9QDateTime@ABI_5_2 5:5.67.0
 _ZNK13KCalendarCore5Event8mimeTypeEv@ABI_5_2 5:5.67.0
 _ZNK13KCalendarCore5Event9serializeER11QDataStream@ABI_5_2 5:5.67.0
 _ZNK13KCalendarCore6Period11hasDurationEv@ABI_5_2 5:5.67.0
 _ZNK13KCalendarCore6Period3endEv@ABI_5_2 5:5.67.0
 _ZNK13KCalendarCore6Period5startEv@ABI_5_2 5:5.67.0
 _ZNK13KCalendarCore6Period7isValidEv@ABI_5_2 5:5.90.0
 _ZNK13KCalendarCore6Period8durationENS_8Duration4TypeE@ABI_5_2 5:5.67.0
 _ZNK13KCalendarCore6Period8durationEv@ABI_5_2 5:5.67.0
 _ZNK13KCalendarCore6PeriodeqERKS0_@ABI_5_2 5:5.67.0
 _ZNK13KCalendarCore6PeriodltERKS0_@ABI_5_2 5:5.67.0
 _ZNK13KCalendarCore6Person4nameEv@ABI_5_2 5:5.67.0
 _ZNK13KCalendarCore6Person5emailEv@ABI_5_2 5:5.67.0
 _ZNK13KCalendarCore6Person7isEmptyEv@ABI_5_2 5:5.67.0
 _ZNK13KCalendarCore6Person8fullNameEv@ABI_5_2 5:5.67.0
 _ZNK13KCalendarCore6PersoneqERKS0_@ABI_5_2 5:5.67.0
 _ZNK13KCalendarCore6PersonneERKS0_@ABI_5_2 5:5.67.0
 _ZNK13KCalendarCore7Journal30supportsGroupwareCommunicationEv@ABI_5_2 5:5.67.0
 _ZNK13KCalendarCore7Journal4typeEv@ABI_5_2 5:5.67.0
 _ZNK13KCalendarCore7Journal5cloneEv@ABI_5_2 5:5.67.0
 _ZNK13KCalendarCore7Journal6equalsERKNS_13IncidenceBaseE@ABI_5_2 5:5.67.0
 _ZNK13KCalendarCore7Journal7typeStrEv@ABI_5_2 5:5.67.0
 _ZNK13KCalendarCore7Journal8dateTimeENS_13IncidenceBase12DateTimeRoleE@ABI_5_2 5:5.67.0
 _ZNK13KCalendarCore7Journal8iconNameERK9QDateTime@ABI_5_2 5:5.67.0
 _ZNK13KCalendarCore7Journal8mimeTypeEv@ABI_5_2 5:5.67.0
 _ZNK13KCalendarCore7Journal9serializeER11QDataStream@ABI_5_2 5:5.67.0
 _ZNK13KCalendarCore8Attendee16customPropertiesEv@ABI_5_2 5:5.67.0
 _ZNK13KCalendarCore8Attendee3uidEv@ABI_5_2 5:5.67.0
 _ZNK13KCalendarCore8Attendee4RSVPEv@ABI_5_2 5:5.67.0
 _ZNK13KCalendarCore8Attendee4nameEv@ABI_5_2 5:5.67.0
 _ZNK13KCalendarCore8Attendee4roleEv@ABI_5_2 5:5.67.0
 _ZNK13KCalendarCore8Attendee5emailEv@ABI_5_2 5:5.67.0
 _ZNK13KCalendarCore8Attendee6cuTypeEv@ABI_5_2 5:5.67.0
 _ZNK13KCalendarCore8Attendee6isNullEv@ABI_5_2 5:5.67.0
 _ZNK13KCalendarCore8Attendee6statusEv@ABI_5_2 5:5.67.0
 _ZNK13KCalendarCore8Attendee8delegateEv@ABI_5_2 5:5.67.0
 _ZNK13KCalendarCore8Attendee8fullNameEv@ABI_5_2 5:5.67.0
 _ZNK13KCalendarCore8Attendee9cuTypeStrEv@ABI_5_2 5:5.67.0
 _ZNK13KCalendarCore8Attendee9delegatorEv@ABI_5_2 5:5.67.0
 _ZNK13KCalendarCore8AttendeeeqERKS0_@ABI_5_2 5:5.67.0
 _ZNK13KCalendarCore8AttendeeneERKS0_@ABI_5_2 5:5.67.0
 _ZNK13KCalendarCore8Calendar10accessModeEv@ABI_5_2 5:5.85.0
 _ZNK13KCalendarCore8Calendar10categoriesEv@ABI_5_2 5:5.67.0
 _ZNK13KCalendarCore8Calendar10incidencesERK5QDate@ABI_5_2 5:5.67.0
 _ZNK13KCalendarCore8Calendar10incidencesERK7QString@ABI_5_2 5:5.67.0
 _ZNK13KCalendarCore8Calendar10incidencesEv@ABI_5_2 5:5.67.0
 _ZNK13KCalendarCore8Calendar10isModifiedEv@ABI_5_2 5:5.67.0
 _ZNK13KCalendarCore8Calendar10metaObjectEv@ABI_5_2 5:5.67.0
 _ZNK13KCalendarCore8Calendar10timeZoneIdEv@ABI_5_2 5:5.67.0
 _ZNK13KCalendarCore8Calendar11batchAddingEv@ABI_5_2 5:5.67.0
 _ZNK13KCalendarCore8Calendar12appendAlarmsER7QVectorI14QSharedPointerINS_5AlarmEEERKS2_INS_9IncidenceEERK9QDateTimeSD_@ABI_5_2 5:5.67.0
 _ZNK13KCalendarCore8Calendar12isAncestorOfERK14QSharedPointerINS_9IncidenceEES5_@ABI_5_2 5:5.67.0
 _ZNK13KCalendarCore8Calendar13rawIncidencesEv@ABI_5_2 5:5.67.0
 _ZNK13KCalendarCore8Calendar15defaultNotebookEv@ABI_5_2 5:5.67.0
 _ZNK13KCalendarCore8Calendar16deletionTrackingEv@ABI_5_2 5:5.67.0
 _ZNK13KCalendarCore8Calendar16hasValidNotebookERK7QString@ABI_5_2 5:5.67.0
 _ZNK13KCalendarCore8Calendar21appendRecurringAlarmsER7QVectorI14QSharedPointerINS_5AlarmEEERKS2_INS_9IncidenceEERK9QDateTimeSD_@ABI_5_2 5:5.67.0
 _ZNK13KCalendarCore8Calendar25incidenceFromSchedulingIDERK7QString@ABI_5_2 5:5.67.0
 _ZNK13KCalendarCore8Calendar26incidencesFromSchedulingIDERK7QString@ABI_5_2 5:5.67.0
 _ZNK13KCalendarCore8Calendar2idEv@ABI_5_2 5:5.85.0
 _ZNK13KCalendarCore8Calendar4iconEv@ABI_5_2 5:5.85.0
 _ZNK13KCalendarCore8Calendar4nameEv@ABI_5_2 5:5.85.0
 _ZNK13KCalendarCore8Calendar5ownerEv@ABI_5_2 5:5.67.0
 _ZNK13KCalendarCore8Calendar5todosENS_13TodoSortFieldENS_13SortDirectionE@ABI_5_2 5:5.67.0
 _ZNK13KCalendarCore8Calendar5todosERK5QDate@ABI_5_2 5:5.67.0
 _ZNK13KCalendarCore8Calendar5todosERK5QDateS3_RK9QTimeZoneb@ABI_5_2 5:5.67.0
 _ZNK13KCalendarCore8Calendar6eventsENS_14EventSortFieldENS_13SortDirectionE@ABI_5_2 5:5.67.0
 _ZNK13KCalendarCore8Calendar6eventsERK5QDateRK9QTimeZoneNS_14EventSortFieldENS_13SortDirectionE@ABI_5_2 5:5.67.0
 _ZNK13KCalendarCore8Calendar6eventsERK5QDateS3_RK9QTimeZoneb@ABI_5_2 5:5.67.0
 _ZNK13KCalendarCore8Calendar6eventsERK9QDateTime@ABI_5_2 5:5.67.0
 _ZNK13KCalendarCore8Calendar6filterEv@ABI_5_2 5:5.67.0
 _ZNK13KCalendarCore8Calendar7deletedERK7QStringRK9QDateTime@ABI_5_2 5:5.67.0
 _ZNK13KCalendarCore8Calendar8alarmsToERK9QDateTime@ABI_5_2 5:5.77.0
 _ZNK13KCalendarCore8Calendar8isSavingEv@ABI_5_2 5:5.67.0
 _ZNK13KCalendarCore8Calendar8journalsENS_16JournalSortFieldENS_13SortDirectionE@ABI_5_2 5:5.67.0
 _ZNK13KCalendarCore8Calendar8journalsERK5QDate@ABI_5_2 5:5.67.0
 _ZNK13KCalendarCore8Calendar8notebookERK14QSharedPointerINS_9IncidenceEE@ABI_5_2 5:5.67.0
 _ZNK13KCalendarCore8Calendar8notebookERK7QString@ABI_5_2 5:5.67.0
 _ZNK13KCalendarCore8Calendar8timeZoneEv@ABI_5_2 5:5.67.0
 _ZNK13KCalendarCore8Calendar9incidenceERK7QStringRK9QDateTime@ABI_5_2 5:5.67.0
 _ZNK13KCalendarCore8Calendar9instancesERK14QSharedPointerINS_9IncidenceEE@ABI_5_2 5:5.67.0
 _ZNK13KCalendarCore8Calendar9isVisibleERK14QSharedPointerINS_9IncidenceEE@ABI_5_2 5:5.67.0
 _ZNK13KCalendarCore8Calendar9isVisibleERK7QString@ABI_5_2 5:5.69.0
 _ZNK13KCalendarCore8Calendar9notebooksEv@ABI_5_2 5:5.67.0
 _ZNK13KCalendarCore8Calendar9productIdEv@ABI_5_2 5:5.67.0
 _ZNK13KCalendarCore8Calendar9relationsERK7QString@ABI_5_2 5:5.67.0
 _ZNK13KCalendarCore8Duration3endERK9QDateTime@ABI_5_2 5:5.67.0
 _ZNK13KCalendarCore8Duration4typeEv@ABI_5_2 5:5.67.0
 _ZNK13KCalendarCore8Duration5valueEv@ABI_5_2 5:5.67.0
 _ZNK13KCalendarCore8Duration6asDaysEv@ABI_5_2 5:5.67.0
 _ZNK13KCalendarCore8Duration6isNullEv@ABI_5_2 5:5.67.0
 _ZNK13KCalendarCore8Duration7isDailyEv@ABI_5_2 5:5.67.0
 _ZNK13KCalendarCore8Duration9asSecondsEv@ABI_5_2 5:5.67.0
 _ZNK13KCalendarCore8DurationcvbEv@ABI_5_2 5:5.67.0
 _ZNK13KCalendarCore8DurationeqERKS0_@ABI_5_2 5:5.67.0
 _ZNK13KCalendarCore8DurationltERKS0_@ABI_5_2 5:5.67.0
 _ZNK13KCalendarCore8DurationngEv@ABI_5_2 5:5.67.0
 _ZNK13KCalendarCore8FreeBusy11busyPeriodsEv@ABI_5_2 5:5.67.0
 _ZNK13KCalendarCore8FreeBusy15fullBusyPeriodsEv@ABI_5_2 5:5.67.0
 _ZNK13KCalendarCore8FreeBusy4typeEv@ABI_5_2 5:5.67.0
 _ZNK13KCalendarCore8FreeBusy5dtEndEv@ABI_5_2 5:5.67.0
 _ZNK13KCalendarCore8FreeBusy6equalsERKNS_13IncidenceBaseE@ABI_5_2 5:5.67.0
 _ZNK13KCalendarCore8FreeBusy7typeStrEv@ABI_5_2 5:5.67.0
 _ZNK13KCalendarCore8FreeBusy8dateTimeENS_13IncidenceBase12DateTimeRoleE@ABI_5_2 5:5.67.0
 _ZNK13KCalendarCore8FreeBusy8mimeTypeEv@ABI_5_2 5:5.67.0
 _ZNK13KCalendarCore9CalFilter12categoryListEv@ABI_5_2 5:5.67.0
 _ZNK13KCalendarCore9CalFilter15filterIncidenceERK14QSharedPointerINS_9IncidenceEE@ABI_5_2 5:5.67.0
 _ZNK13KCalendarCore9CalFilter17completedTimeSpanEv@ABI_5_2 5:5.67.0
 _ZNK13KCalendarCore9CalFilter4nameEv@ABI_5_2 5:5.67.0
 _ZNK13KCalendarCore9CalFilter5applyEP7QVectorI14QSharedPointerINS_4TodoEEE@ABI_5_2 5:5.67.0
 _ZNK13KCalendarCore9CalFilter5applyEP7QVectorI14QSharedPointerINS_5EventEEE@ABI_5_2 5:5.67.0
 _ZNK13KCalendarCore9CalFilter5applyEP7QVectorI14QSharedPointerINS_7JournalEEE@ABI_5_2 5:5.67.0
 _ZNK13KCalendarCore9CalFilter8criteriaEv@ABI_5_2 5:5.67.0
 _ZNK13KCalendarCore9CalFilter9emailListEv@ABI_5_2 5:5.67.0
 _ZNK13KCalendarCore9CalFilter9isEnabledEv@ABI_5_2 5:5.67.0
 _ZNK13KCalendarCore9CalFiltereqERKS0_@ABI_5_2 5:5.67.0
 _ZNK13KCalendarCore9CalFormat9exceptionEv@ABI_5_2 5:5.67.0
 _ZNK13KCalendarCore9Exception4codeEv@ABI_5_2 5:5.67.0
 _ZNK13KCalendarCore9Exception9argumentsEv@ABI_5_2 5:5.67.0
 _ZNK13KCalendarCore9Incidence10categoriesEv@ABI_5_2 5:5.67.0
 _ZNK13KCalendarCore9Incidence10recurrenceEv@ABI_5_2 5:5.67.0
 _ZNK13KCalendarCore9Incidence11attachmentsERK7QString@ABI_5_2 5:5.67.0
 _ZNK13KCalendarCore9Incidence11attachmentsEv@ABI_5_2 5:5.67.0
 _ZNK13KCalendarCore9Incidence11conferencesEv@ABI_5_2 5:5.77.0
 _ZNK13KCalendarCore9Incidence11descriptionEv@ABI_5_2 5:5.67.0
 _ZNK13KCalendarCore9Incidence11geoLatitudeEv@ABI_5_2 5:5.67.0
 _ZNK13KCalendarCore9Incidence11richSummaryEv@ABI_5_2 5:5.67.0
 _ZNK13KCalendarCore9Incidence12customStatusEv@ABI_5_2 5:5.67.0
 _ZNK13KCalendarCore9Incidence12geoLongitudeEv@ABI_5_2 5:5.67.0
 _ZNK13KCalendarCore9Incidence12recurrenceIdEv@ABI_5_2 5:5.67.0
 _ZNK13KCalendarCore9Incidence12richLocationEv@ABI_5_2 5:5.67.0
 _ZNK13KCalendarCore9Incidence12schedulingIDEv@ABI_5_2 5:5.67.0
 _ZNK13KCalendarCore9Incidence13categoriesStrEv@ABI_5_2 5:5.67.0
 _ZNK13KCalendarCore9Incidence13summaryIsRichEv@ABI_5_2 5:5.67.0
 _ZNK13KCalendarCore9Incidence13thisAndFutureEv@ABI_5_2 5:5.67.0
 _ZNK13KCalendarCore9Incidence14altDescriptionEv@ABI_5_2 5:5.67.0
 _ZNK13KCalendarCore9Incidence14locationIsRichEv@ABI_5_2 5:5.67.0
 _ZNK13KCalendarCore9Incidence14recurrenceTypeEv@ABI_5_2 5:5.67.0
 _ZNK13KCalendarCore9Incidence15endDateForStartERK9QDateTime@ABI_5_2 5:5.67.0
 _ZNK13KCalendarCore9Incidence15hasRecurrenceIdEv@ABI_5_2 5:5.67.0
 _ZNK13KCalendarCore9Incidence15richDescriptionEv@ABI_5_2 5:5.67.0
 _ZNK13KCalendarCore9Incidence16hasEnabledAlarmsEv@ABI_5_2 5:5.67.0
 _ZNK13KCalendarCore9Incidence17descriptionIsRichEv@ABI_5_2 5:5.67.0
 _ZNK13KCalendarCore9Incidence17hasAltDescriptionEv@ABI_5_2 5:5.67.0
 _ZNK13KCalendarCore9Incidence18instanceIdentifierEv@ABI_5_2 5:5.67.0
 _ZNK13KCalendarCore9Incidence21startDateTimesForDateERK5QDateRK9QTimeZone@ABI_5_2 5:5.67.0
 _ZNK13KCalendarCore9Incidence25startDateTimesForDateTimeERK9QDateTime@ABI_5_2 5:5.67.0
 _ZNK13KCalendarCore9Incidence5colorEv@ABI_5_2 5:5.77.0
 _ZNK13KCalendarCore9Incidence6alarmsEv@ABI_5_2 5:5.67.0
 _ZNK13KCalendarCore9Incidence6equalsERKNS_13IncidenceBaseE@ABI_5_2 5:5.67.0
 _ZNK13KCalendarCore9Incidence6hasGeoEv@ABI_5_2 5:5.67.0
 _ZNK13KCalendarCore9Incidence6recursEv@ABI_5_2 5:5.67.0
 _ZNK13KCalendarCore9Incidence6statusEv@ABI_5_2 5:5.67.0
 _ZNK13KCalendarCore9Incidence7createdEv@ABI_5_2 5:5.67.0
 _ZNK13KCalendarCore9Incidence7secrecyEv@ABI_5_2 5:5.67.0
 _ZNK13KCalendarCore9Incidence7summaryEv@ABI_5_2 5:5.67.0
 _ZNK13KCalendarCore9Incidence8locationEv@ABI_5_2 5:5.67.0
 _ZNK13KCalendarCore9Incidence8priorityEv@ABI_5_2 5:5.67.0
 _ZNK13KCalendarCore9Incidence8recursAtERK9QDateTime@ABI_5_2 5:5.67.0
 _ZNK13KCalendarCore9Incidence8recursOnERK5QDateRK9QTimeZone@ABI_5_2 5:5.67.0
 _ZNK13KCalendarCore9Incidence8revisionEv@ABI_5_2 5:5.67.0
 _ZNK13KCalendarCore9Incidence9localOnlyEv@ABI_5_2 5:5.67.0
 _ZNK13KCalendarCore9Incidence9relatedToENS0_7RelTypeE@ABI_5_2 5:5.67.0
 _ZNK13KCalendarCore9Incidence9resourcesEv@ABI_5_2 5:5.67.0
 _ZNK13KCalendarCore9Incidence9serializeER11QDataStream@ABI_5_2 5:5.67.0
 _ZTIN13KCalendarCore10CalStorageE@ABI_5_2 5:5.67.0
 _ZTIN13KCalendarCore10ICalFormatE@ABI_5_2 5:5.67.0
 _ZTIN13KCalendarCore10Recurrence18RecurrenceObserverE@ABI_5_2 5:5.67.0
 _ZTIN13KCalendarCore10RecurrenceE@ABI_5_2 5:5.67.0
 _ZTIN13KCalendarCore10VCalFormatE@ABI_5_2 5:5.67.0
 _ZTIN13KCalendarCore11FileStorageE@ABI_5_2 5:5.67.0
 _ZTIN13KCalendarCore13FreeBusyCacheE@ABI_5_2 5:5.67.0
 _ZTIN13KCalendarCore13IncidenceBase17IncidenceObserverE@ABI_5_2 5:5.67.0
 _ZTIN13KCalendarCore13IncidenceBaseE@ABI_5_2 5:5.67.0
 _ZTIN13KCalendarCore14CalendarPluginE@ABI_5_2 5:5.85.0
 _ZTIN13KCalendarCore14MemoryCalendarE@ABI_5_2 5:5.67.0
 _ZTIN13KCalendarCore14RecurrenceRule12RuleObserverE@ABI_5_2 5:5.67.0
 _ZTIN13KCalendarCore16CustomPropertiesE@ABI_5_2 5:5.67.0
 _ZTIN13KCalendarCore4TodoE@ABI_5_2 5:5.67.0
 _ZTIN13KCalendarCore5AlarmE@ABI_5_2 5:5.67.0
 _ZTIN13KCalendarCore5EventE@ABI_5_2 5:5.67.0
 _ZTIN13KCalendarCore6PersonE@ABI_5_2 5:5.67.0
 _ZTIN13KCalendarCore7JournalE@ABI_5_2 5:5.67.0
 _ZTIN13KCalendarCore7VisitorE@ABI_5_2 5:5.67.0
 _ZTIN13KCalendarCore8Calendar16CalendarObserverE@ABI_5_2 5:5.67.0
 _ZTIN13KCalendarCore8CalendarE@ABI_5_2 5:5.67.0
 _ZTIN13KCalendarCore8FreeBusyE@ABI_5_2 5:5.67.0
 _ZTIN13KCalendarCore9CalFormatE@ABI_5_2 5:5.67.0
 _ZTIN13KCalendarCore9ExceptionE@ABI_5_2 5:5.67.0
 _ZTIN13KCalendarCore9IncidenceE@ABI_5_2 5:5.67.0
 _ZTSN13KCalendarCore10CalStorageE@ABI_5_2 5:5.67.0
 _ZTSN13KCalendarCore10ICalFormatE@ABI_5_2 5:5.67.0
 _ZTSN13KCalendarCore10Recurrence18RecurrenceObserverE@ABI_5_2 5:5.67.0
 _ZTSN13KCalendarCore10RecurrenceE@ABI_5_2 5:5.67.0
 _ZTSN13KCalendarCore10VCalFormatE@ABI_5_2 5:5.67.0
 _ZTSN13KCalendarCore11FileStorageE@ABI_5_2 5:5.67.0
 _ZTSN13KCalendarCore13FreeBusyCacheE@ABI_5_2 5:5.67.0
 _ZTSN13KCalendarCore13IncidenceBase17IncidenceObserverE@ABI_5_2 5:5.67.0
 _ZTSN13KCalendarCore13IncidenceBaseE@ABI_5_2 5:5.67.0
 _ZTSN13KCalendarCore14CalendarPluginE@ABI_5_2 5:5.85.0
 _ZTSN13KCalendarCore14MemoryCalendarE@ABI_5_2 5:5.67.0
 _ZTSN13KCalendarCore14RecurrenceRule12RuleObserverE@ABI_5_2 5:5.67.0
 _ZTSN13KCalendarCore16CustomPropertiesE@ABI_5_2 5:5.67.0
 _ZTSN13KCalendarCore4TodoE@ABI_5_2 5:5.67.0
 _ZTSN13KCalendarCore5AlarmE@ABI_5_2 5:5.67.0
 _ZTSN13KCalendarCore5EventE@ABI_5_2 5:5.67.0
 _ZTSN13KCalendarCore6PersonE@ABI_5_2 5:5.67.0
 _ZTSN13KCalendarCore7JournalE@ABI_5_2 5:5.67.0
 _ZTSN13KCalendarCore7VisitorE@ABI_5_2 5:5.67.0
 _ZTSN13KCalendarCore8Calendar16CalendarObserverE@ABI_5_2 5:5.67.0
 _ZTSN13KCalendarCore8CalendarE@ABI_5_2 5:5.67.0
 _ZTSN13KCalendarCore8FreeBusyE@ABI_5_2 5:5.67.0
 _ZTSN13KCalendarCore9CalFormatE@ABI_5_2 5:5.67.0
 _ZTSN13KCalendarCore9ExceptionE@ABI_5_2 5:5.67.0
 _ZTSN13KCalendarCore9IncidenceE@ABI_5_2 5:5.67.0
 _ZTVN13KCalendarCore10CalStorageE@ABI_5_2 5:5.67.0
 _ZTVN13KCalendarCore10ICalFormatE@ABI_5_2 5:5.67.0
 _ZTVN13KCalendarCore10Recurrence18RecurrenceObserverE@ABI_5_2 5:5.67.0
 _ZTVN13KCalendarCore10RecurrenceE@ABI_5_2 5:5.67.0
 _ZTVN13KCalendarCore10VCalFormatE@ABI_5_2 5:5.67.0
 _ZTVN13KCalendarCore11FileStorageE@ABI_5_2 5:5.67.0
 _ZTVN13KCalendarCore13FreeBusyCacheE@ABI_5_2 5:5.67.0
 _ZTVN13KCalendarCore13IncidenceBase17IncidenceObserverE@ABI_5_2 5:5.67.0
 _ZTVN13KCalendarCore13IncidenceBaseE@ABI_5_2 5:5.67.0
 _ZTVN13KCalendarCore14CalendarPluginE@ABI_5_2 5:5.85.0
 _ZTVN13KCalendarCore14MemoryCalendarE@ABI_5_2 5:5.67.0
 _ZTVN13KCalendarCore14RecurrenceRule12RuleObserverE@ABI_5_2 5:5.67.0
 _ZTVN13KCalendarCore16CustomPropertiesE@ABI_5_2 5:5.67.0
 _ZTVN13KCalendarCore4TodoE@ABI_5_2 5:5.67.0
 _ZTVN13KCalendarCore5AlarmE@ABI_5_2 5:5.67.0
 _ZTVN13KCalendarCore5EventE@ABI_5_2 5:5.67.0
 _ZTVN13KCalendarCore6PersonE@ABI_5_2 5:5.67.0
 _ZTVN13KCalendarCore7JournalE@ABI_5_2 5:5.67.0
 _ZTVN13KCalendarCore7VisitorE@ABI_5_2 5:5.67.0
 _ZTVN13KCalendarCore8Calendar16CalendarObserverE@ABI_5_2 5:5.67.0
 _ZTVN13KCalendarCore8CalendarE@ABI_5_2 5:5.67.0
 _ZTVN13KCalendarCore8FreeBusyE@ABI_5_2 5:5.67.0
 _ZTVN13KCalendarCore9CalFormatE@ABI_5_2 5:5.67.0
 _ZTVN13KCalendarCore9ExceptionE@ABI_5_2 5:5.67.0
 _ZTVN13KCalendarCore9IncidenceE@ABI_5_2 5:5.67.0
 (c++)"non-virtual thunk to KCalendarCore::Calendar::customPropertyUpdated()@ABI_5_2" 5:5.67.0
 (c++)"non-virtual thunk to KCalendarCore::Calendar::incidenceUpdated(QString const&, QDateTime const&)@ABI_5_2" 5:5.67.0
 (c++)"non-virtual thunk to KCalendarCore::Calendar::~Calendar()@ABI_5_2" 5:5.67.0
 (c++)"non-virtual thunk to KCalendarCore::Event::~Event()@ABI_5_2" 5:5.67.0
 (c++)"non-virtual thunk to KCalendarCore::Incidence::recurrenceUpdated(KCalendarCore::Recurrence*)@ABI_5_2" 5:5.67.0
 (c++)"non-virtual thunk to KCalendarCore::Incidence::~Incidence()@ABI_5_2" 5:5.67.0
 (c++)"non-virtual thunk to KCalendarCore::Journal::~Journal()@ABI_5_2" 5:5.67.0
 (c++)"non-virtual thunk to KCalendarCore::MemoryCalendar::incidenceUpdate(QString const&, QDateTime const&)@ABI_5_2" 5:5.67.0
 (c++)"non-virtual thunk to KCalendarCore::MemoryCalendar::incidenceUpdated(QString const&, QDateTime const&)@ABI_5_2" 5:5.67.0
 (c++)"non-virtual thunk to KCalendarCore::MemoryCalendar::~MemoryCalendar()@ABI_5_2" 5:5.67.0
 (c++)"non-virtual thunk to KCalendarCore::Todo::~Todo()@ABI_5_2" 5:5.67.0
